ARM GAS  C:\Users\user\AppData\Local\Temp\ccSTX0ka.s 			page 1


   1              		.cpu cortex-m3
   2              		.eabi_attribute 20, 1
   3              		.eabi_attribute 21, 1
   4              		.eabi_attribute 23, 3
   5              		.eabi_attribute 24, 1
   6              		.eabi_attribute 25, 1
   7              		.eabi_attribute 26, 1
   8              		.eabi_attribute 30, 1
   9              		.eabi_attribute 34, 1
  10              		.eabi_attribute 18, 4
  11              		.file	"main.c"
  12              		.text
  13              	.Ltext0:
  14              		.cfi_sections	.debug_frame
  15              		.section	.text.MX_GPIO_Init,"ax",%progbits
  16              		.align	1
  17              		.arch armv7-m
  18              		.syntax unified
  19              		.thumb
  20              		.thumb_func
  21              		.fpu softvfp
  23              	MX_GPIO_Init:
  24              	.LFB69:
  25              		.file 1 "Core/Src/main.c"
   1:Core/Src/main.c **** /* USER CODE BEGIN Header */
   2:Core/Src/main.c **** /**
   3:Core/Src/main.c ****   ******************************************************************************
   4:Core/Src/main.c ****   * @file           : main.c
   5:Core/Src/main.c ****   * @brief          : Main program body
   6:Core/Src/main.c ****   ******************************************************************************
   7:Core/Src/main.c ****   * @attention
   8:Core/Src/main.c ****   *
   9:Core/Src/main.c ****   * <h2><center>&copy; Copyright (c) 2021 STMicroelectronics.
  10:Core/Src/main.c ****   * All rights reserved.</center></h2>
  11:Core/Src/main.c ****   *
  12:Core/Src/main.c ****   * This software component is licensed by ST under BSD 3-Clause license,
  13:Core/Src/main.c ****   * the "License"; You may not use this file except in compliance with the
  14:Core/Src/main.c ****   * License. You may obtain a copy of the License at:
  15:Core/Src/main.c ****   *                        opensource.org/licenses/BSD-3-Clause
  16:Core/Src/main.c ****   *
  17:Core/Src/main.c ****   ******************************************************************************
  18:Core/Src/main.c ****   */
  19:Core/Src/main.c **** /* USER CODE END Header */
  20:Core/Src/main.c **** /* Includes ------------------------------------------------------------------*/
  21:Core/Src/main.c **** #include "main.h"
  22:Core/Src/main.c **** 
  23:Core/Src/main.c **** /* Private includes ----------------------------------------------------------*/
  24:Core/Src/main.c **** /* USER CODE BEGIN Includes */
  25:Core/Src/main.c **** #include <string.h>
  26:Core/Src/main.c **** /* USER CODE END Includes */
  27:Core/Src/main.c **** 
  28:Core/Src/main.c **** /* Private typedef -----------------------------------------------------------*/
  29:Core/Src/main.c **** /* USER CODE BEGIN PTD */
  30:Core/Src/main.c **** 
  31:Core/Src/main.c **** /* USER CODE END PTD */
  32:Core/Src/main.c **** 
  33:Core/Src/main.c **** /* Private define ------------------------------------------------------------*/
ARM GAS  C:\Users\user\AppData\Local\Temp\ccSTX0ka.s 			page 2


  34:Core/Src/main.c **** /* USER CODE BEGIN PD */
  35:Core/Src/main.c **** /* USER CODE END PD */
  36:Core/Src/main.c **** 
  37:Core/Src/main.c **** /* Private macro -------------------------------------------------------------*/
  38:Core/Src/main.c **** /* USER CODE BEGIN PM */
  39:Core/Src/main.c **** 
  40:Core/Src/main.c **** /* USER CODE END PM */
  41:Core/Src/main.c **** 
  42:Core/Src/main.c **** /* Private variables ---------------------------------------------------------*/
  43:Core/Src/main.c **** UART_HandleTypeDef huart2;
  44:Core/Src/main.c **** DMA_HandleTypeDef hdma_usart2_rx;
  45:Core/Src/main.c **** 
  46:Core/Src/main.c **** /* USER CODE BEGIN PV */
  47:Core/Src/main.c **** 
  48:Core/Src/main.c **** /* USER CODE END PV */
  49:Core/Src/main.c **** 
  50:Core/Src/main.c **** /* Private function prototypes -----------------------------------------------*/
  51:Core/Src/main.c **** void SystemClock_Config(void);
  52:Core/Src/main.c **** static void MX_GPIO_Init(void);
  53:Core/Src/main.c **** static void MX_DMA_Init(void);
  54:Core/Src/main.c **** static void MX_USART2_UART_Init(void);
  55:Core/Src/main.c **** /* USER CODE BEGIN PFP */
  56:Core/Src/main.c **** 
  57:Core/Src/main.c **** /* USER CODE END PFP */
  58:Core/Src/main.c **** 
  59:Core/Src/main.c **** /* Private user code ---------------------------------------------------------*/
  60:Core/Src/main.c **** /* USER CODE BEGIN 0 */
  61:Core/Src/main.c **** #define RxBuf_SIZE 10
  62:Core/Src/main.c **** #define MainBuf_SIZE 20
  63:Core/Src/main.c **** 
  64:Core/Src/main.c **** uint8_t RxBuf[RxBuf_SIZE];
  65:Core/Src/main.c **** uint8_t MainBuf[MainBuf_SIZE];
  66:Core/Src/main.c **** 
  67:Core/Src/main.c **** uint16_t oldPos = 0;
  68:Core/Src/main.c **** uint16_t newPos = 0;
  69:Core/Src/main.c **** 
  70:Core/Src/main.c **** int isOK = 0;
  71:Core/Src/main.c **** 
  72:Core/Src/main.c **** /* USER CODE END 0 */
  73:Core/Src/main.c **** 
  74:Core/Src/main.c **** /**
  75:Core/Src/main.c ****   * @brief  The application entry point.
  76:Core/Src/main.c ****   * @retval int
  77:Core/Src/main.c ****   */
  78:Core/Src/main.c **** int main(void)
  79:Core/Src/main.c **** {
  80:Core/Src/main.c ****   /* USER CODE BEGIN 1 */
  81:Core/Src/main.c **** 
  82:Core/Src/main.c ****   /* USER CODE END 1 */
  83:Core/Src/main.c **** 
  84:Core/Src/main.c ****   /* MCU Configuration--------------------------------------------------------*/
  85:Core/Src/main.c **** 
  86:Core/Src/main.c ****   /* Reset of all peripherals, Initializes the Flash interface and the Systick. */
  87:Core/Src/main.c ****   HAL_Init();
  88:Core/Src/main.c **** 
  89:Core/Src/main.c ****   /* USER CODE BEGIN Init */
  90:Core/Src/main.c **** 
ARM GAS  C:\Users\user\AppData\Local\Temp\ccSTX0ka.s 			page 3


  91:Core/Src/main.c ****   /* USER CODE END Init */
  92:Core/Src/main.c **** 
  93:Core/Src/main.c ****   /* Configure the system clock */
  94:Core/Src/main.c ****   SystemClock_Config();
  95:Core/Src/main.c **** 
  96:Core/Src/main.c ****   /* USER CODE BEGIN SysInit */
  97:Core/Src/main.c **** 
  98:Core/Src/main.c ****   /* USER CODE END SysInit */
  99:Core/Src/main.c **** 
 100:Core/Src/main.c ****   /* Initialize all configured peripherals */
 101:Core/Src/main.c ****   MX_GPIO_Init();
 102:Core/Src/main.c ****   MX_DMA_Init();
 103:Core/Src/main.c ****   MX_USART2_UART_Init();
 104:Core/Src/main.c ****   /* USER CODE BEGIN 2 */
 105:Core/Src/main.c ****   HAL_UARTEx_ReceiveToIdle_DMA(&huart2, RxBuf, RxBuf_SIZE);
 106:Core/Src/main.c ****   __HAL_DMA_DISABLE_IT(&hdma_usart2_rx, DMA_IT_HT);
 107:Core/Src/main.c ****   /* USER CODE END 2 */
 108:Core/Src/main.c **** 
 109:Core/Src/main.c ****   /* Infinite loop */
 110:Core/Src/main.c ****   /* USER CODE BEGIN WHILE */
 111:Core/Src/main.c ****   uint8_t data[] = "HELLO WORLD123 \r\n";
 112:Core/Src/main.c **** 
 113:Core/Src/main.c ****   while (1)
 114:Core/Src/main.c ****   {
 115:Core/Src/main.c ****     /* USER CODE END WHILE */
 116:Core/Src/main.c **** 
 117:Core/Src/main.c ****     /* USER CODE BEGIN 3 */
 118:Core/Src/main.c **** 
 119:Core/Src/main.c ****     // HAL_GPIO_TogglePin(LED_GPIO_Port,LED_Pin);
 120:Core/Src/main.c ****     // HAL_Delay (5000);
 121:Core/Src/main.c ****   }
 122:Core/Src/main.c ****   /* USER CODE END 3 */
 123:Core/Src/main.c **** }
 124:Core/Src/main.c **** 
 125:Core/Src/main.c **** /**
 126:Core/Src/main.c ****   * @brief System Clock Configuration
 127:Core/Src/main.c ****   * @retval None
 128:Core/Src/main.c ****   */
 129:Core/Src/main.c **** void SystemClock_Config(void)
 130:Core/Src/main.c **** {
 131:Core/Src/main.c ****   RCC_OscInitTypeDef RCC_OscInitStruct = {0};
 132:Core/Src/main.c ****   RCC_ClkInitTypeDef RCC_ClkInitStruct = {0};
 133:Core/Src/main.c **** 
 134:Core/Src/main.c ****   /** Initializes the RCC Oscillators according to the specified parameters
 135:Core/Src/main.c ****   * in the RCC_OscInitTypeDef structure.
 136:Core/Src/main.c ****   */
 137:Core/Src/main.c ****   RCC_OscInitStruct.OscillatorType = RCC_OSCILLATORTYPE_HSE;
 138:Core/Src/main.c ****   RCC_OscInitStruct.HSEState = RCC_HSE_ON;
 139:Core/Src/main.c ****   RCC_OscInitStruct.PLL.PLLState = RCC_PLL_NONE;
 140:Core/Src/main.c ****   if (HAL_RCC_OscConfig(&RCC_OscInitStruct) != HAL_OK)
 141:Core/Src/main.c ****   {
 142:Core/Src/main.c ****     Error_Handler();
 143:Core/Src/main.c ****   }
 144:Core/Src/main.c ****   /** Initializes the CPU, AHB and APB buses clocks
 145:Core/Src/main.c ****   */
 146:Core/Src/main.c ****   RCC_ClkInitStruct.ClockType = RCC_CLOCKTYPE_HCLK|RCC_CLOCKTYPE_SYSCLK
 147:Core/Src/main.c ****                               |RCC_CLOCKTYPE_PCLK1|RCC_CLOCKTYPE_PCLK2;
ARM GAS  C:\Users\user\AppData\Local\Temp\ccSTX0ka.s 			page 4


 148:Core/Src/main.c ****   RCC_ClkInitStruct.SYSCLKSource = RCC_SYSCLKSOURCE_HSE;
 149:Core/Src/main.c ****   RCC_ClkInitStruct.AHBCLKDivider = RCC_SYSCLK_DIV1;
 150:Core/Src/main.c ****   RCC_ClkInitStruct.APB1CLKDivider = RCC_HCLK_DIV1;
 151:Core/Src/main.c ****   RCC_ClkInitStruct.APB2CLKDivider = RCC_HCLK_DIV1;
 152:Core/Src/main.c **** 
 153:Core/Src/main.c ****   if (HAL_RCC_ClockConfig(&RCC_ClkInitStruct, FLASH_LATENCY_0) != HAL_OK)
 154:Core/Src/main.c ****   {
 155:Core/Src/main.c ****     Error_Handler();
 156:Core/Src/main.c ****   }
 157:Core/Src/main.c **** }
 158:Core/Src/main.c **** 
 159:Core/Src/main.c **** /**
 160:Core/Src/main.c ****   * @brief USART2 Initialization Function
 161:Core/Src/main.c ****   * @param None
 162:Core/Src/main.c ****   * @retval None
 163:Core/Src/main.c ****   */
 164:Core/Src/main.c **** static void MX_USART2_UART_Init(void)
 165:Core/Src/main.c **** {
 166:Core/Src/main.c **** 
 167:Core/Src/main.c ****   /* USER CODE BEGIN USART2_Init 0 */
 168:Core/Src/main.c **** 
 169:Core/Src/main.c ****   /* USER CODE END USART2_Init 0 */
 170:Core/Src/main.c **** 
 171:Core/Src/main.c ****   /* USER CODE BEGIN USART2_Init 1 */
 172:Core/Src/main.c **** 
 173:Core/Src/main.c ****   /* USER CODE END USART2_Init 1 */
 174:Core/Src/main.c ****   huart2.Instance = USART2;
 175:Core/Src/main.c ****   huart2.Init.BaudRate = 115200;
 176:Core/Src/main.c ****   huart2.Init.WordLength = UART_WORDLENGTH_8B;
 177:Core/Src/main.c ****   huart2.Init.StopBits = UART_STOPBITS_1;
 178:Core/Src/main.c ****   huart2.Init.Parity = UART_PARITY_NONE;
 179:Core/Src/main.c ****   huart2.Init.Mode = UART_MODE_TX_RX;
 180:Core/Src/main.c ****   huart2.Init.HwFlowCtl = UART_HWCONTROL_NONE;
 181:Core/Src/main.c ****   huart2.Init.OverSampling = UART_OVERSAMPLING_16;
 182:Core/Src/main.c ****   if (HAL_UART_Init(&huart2) != HAL_OK)
 183:Core/Src/main.c ****   {
 184:Core/Src/main.c ****     Error_Handler();
 185:Core/Src/main.c ****   }
 186:Core/Src/main.c ****   /* USER CODE BEGIN USART2_Init 2 */
 187:Core/Src/main.c **** 
 188:Core/Src/main.c ****   /* USER CODE END USART2_Init 2 */
 189:Core/Src/main.c **** 
 190:Core/Src/main.c **** }
 191:Core/Src/main.c **** 
 192:Core/Src/main.c **** /**
 193:Core/Src/main.c ****   * Enable DMA controller clock
 194:Core/Src/main.c ****   */
 195:Core/Src/main.c **** static void MX_DMA_Init(void)
 196:Core/Src/main.c **** {
 197:Core/Src/main.c **** 
 198:Core/Src/main.c ****   /* DMA controller clock enable */
 199:Core/Src/main.c ****   __HAL_RCC_DMA1_CLK_ENABLE();
 200:Core/Src/main.c **** 
 201:Core/Src/main.c ****   /* DMA interrupt init */
 202:Core/Src/main.c ****   /* DMA1_Channel6_IRQn interrupt configuration */
 203:Core/Src/main.c ****   HAL_NVIC_SetPriority(DMA1_Channel6_IRQn, 0, 0);
 204:Core/Src/main.c ****   HAL_NVIC_EnableIRQ(DMA1_Channel6_IRQn);
ARM GAS  C:\Users\user\AppData\Local\Temp\ccSTX0ka.s 			page 5


 205:Core/Src/main.c **** 
 206:Core/Src/main.c **** }
 207:Core/Src/main.c **** 
 208:Core/Src/main.c **** /**
 209:Core/Src/main.c ****   * @brief GPIO Initialization Function
 210:Core/Src/main.c ****   * @param None
 211:Core/Src/main.c ****   * @retval None
 212:Core/Src/main.c ****   */
 213:Core/Src/main.c **** static void MX_GPIO_Init(void)
 214:Core/Src/main.c **** {
  26              		.loc 1 214 1 view -0
  27              		.cfi_startproc
  28              		@ args = 0, pretend = 0, frame = 32
  29              		@ frame_needed = 0, uses_anonymous_args = 0
  30 0000 30B5     		push	{r4, r5, lr}
  31              	.LCFI0:
  32              		.cfi_def_cfa_offset 12
  33              		.cfi_offset 4, -12
  34              		.cfi_offset 5, -8
  35              		.cfi_offset 14, -4
  36 0002 89B0     		sub	sp, sp, #36
  37              	.LCFI1:
  38              		.cfi_def_cfa_offset 48
 215:Core/Src/main.c ****   GPIO_InitTypeDef GPIO_InitStruct = {0};
  39              		.loc 1 215 3 view .LVU1
  40              		.loc 1 215 20 is_stmt 0 view .LVU2
  41 0004 0024     		movs	r4, #0
  42 0006 0494     		str	r4, [sp, #16]
  43 0008 0594     		str	r4, [sp, #20]
  44 000a 0694     		str	r4, [sp, #24]
  45 000c 0794     		str	r4, [sp, #28]
 216:Core/Src/main.c **** 
 217:Core/Src/main.c ****   /* GPIO Ports Clock Enable */
 218:Core/Src/main.c ****   __HAL_RCC_GPIOC_CLK_ENABLE();
  46              		.loc 1 218 3 is_stmt 1 view .LVU3
  47              	.LBB4:
  48              		.loc 1 218 3 view .LVU4
  49              		.loc 1 218 3 view .LVU5
  50 000e 184B     		ldr	r3, .L3
  51 0010 9A69     		ldr	r2, [r3, #24]
  52 0012 42F01002 		orr	r2, r2, #16
  53 0016 9A61     		str	r2, [r3, #24]
  54              		.loc 1 218 3 view .LVU6
  55 0018 9A69     		ldr	r2, [r3, #24]
  56 001a 02F01002 		and	r2, r2, #16
  57 001e 0192     		str	r2, [sp, #4]
  58              		.loc 1 218 3 view .LVU7
  59 0020 019A     		ldr	r2, [sp, #4]
  60              	.LBE4:
 219:Core/Src/main.c ****   __HAL_RCC_GPIOD_CLK_ENABLE();
  61              		.loc 1 219 3 view .LVU8
  62              	.LBB5:
  63              		.loc 1 219 3 view .LVU9
  64              		.loc 1 219 3 view .LVU10
  65 0022 9A69     		ldr	r2, [r3, #24]
  66 0024 42F02002 		orr	r2, r2, #32
  67 0028 9A61     		str	r2, [r3, #24]
ARM GAS  C:\Users\user\AppData\Local\Temp\ccSTX0ka.s 			page 6


  68              		.loc 1 219 3 view .LVU11
  69 002a 9A69     		ldr	r2, [r3, #24]
  70 002c 02F02002 		and	r2, r2, #32
  71 0030 0292     		str	r2, [sp, #8]
  72              		.loc 1 219 3 view .LVU12
  73 0032 029A     		ldr	r2, [sp, #8]
  74              	.LBE5:
 220:Core/Src/main.c ****   __HAL_RCC_GPIOA_CLK_ENABLE();
  75              		.loc 1 220 3 view .LVU13
  76              	.LBB6:
  77              		.loc 1 220 3 view .LVU14
  78              		.loc 1 220 3 view .LVU15
  79 0034 9A69     		ldr	r2, [r3, #24]
  80 0036 42F00402 		orr	r2, r2, #4
  81 003a 9A61     		str	r2, [r3, #24]
  82              		.loc 1 220 3 view .LVU16
  83 003c 9B69     		ldr	r3, [r3, #24]
  84 003e 03F00403 		and	r3, r3, #4
  85 0042 0393     		str	r3, [sp, #12]
  86              		.loc 1 220 3 view .LVU17
  87 0044 039B     		ldr	r3, [sp, #12]
  88              	.LBE6:
 221:Core/Src/main.c **** 
 222:Core/Src/main.c ****   /*Configure GPIO pin Output Level */
 223:Core/Src/main.c ****   HAL_GPIO_WritePin(LED_GPIO_Port, LED_Pin, GPIO_PIN_RESET);
  89              		.loc 1 223 3 view .LVU18
  90 0046 0B4D     		ldr	r5, .L3+4
  91 0048 2246     		mov	r2, r4
  92 004a 4FF40051 		mov	r1, #8192
  93 004e 2846     		mov	r0, r5
  94 0050 FFF7FEFF 		bl	HAL_GPIO_WritePin
  95              	.LVL0:
 224:Core/Src/main.c **** 
 225:Core/Src/main.c ****   /*Configure GPIO pin : LED_Pin */
 226:Core/Src/main.c ****   GPIO_InitStruct.Pin = LED_Pin;
  96              		.loc 1 226 3 view .LVU19
  97              		.loc 1 226 23 is_stmt 0 view .LVU20
  98 0054 4FF40053 		mov	r3, #8192
  99 0058 0493     		str	r3, [sp, #16]
 227:Core/Src/main.c ****   GPIO_InitStruct.Mode = GPIO_MODE_OUTPUT_PP;
 100              		.loc 1 227 3 is_stmt 1 view .LVU21
 101              		.loc 1 227 24 is_stmt 0 view .LVU22
 102 005a 0123     		movs	r3, #1
 103 005c 0593     		str	r3, [sp, #20]
 228:Core/Src/main.c ****   GPIO_InitStruct.Pull = GPIO_NOPULL;
 104              		.loc 1 228 3 is_stmt 1 view .LVU23
 105              		.loc 1 228 24 is_stmt 0 view .LVU24
 106 005e 0694     		str	r4, [sp, #24]
 229:Core/Src/main.c ****   GPIO_InitStruct.Speed = GPIO_SPEED_FREQ_LOW;
 107              		.loc 1 229 3 is_stmt 1 view .LVU25
 108              		.loc 1 229 25 is_stmt 0 view .LVU26
 109 0060 0223     		movs	r3, #2
 110 0062 0793     		str	r3, [sp, #28]
 230:Core/Src/main.c ****   HAL_GPIO_Init(LED_GPIO_Port, &GPIO_InitStruct);
 111              		.loc 1 230 3 is_stmt 1 view .LVU27
 112 0064 04A9     		add	r1, sp, #16
 113 0066 2846     		mov	r0, r5
ARM GAS  C:\Users\user\AppData\Local\Temp\ccSTX0ka.s 			page 7


 114 0068 FFF7FEFF 		bl	HAL_GPIO_Init
 115              	.LVL1:
 231:Core/Src/main.c **** 
 232:Core/Src/main.c **** }
 116              		.loc 1 232 1 is_stmt 0 view .LVU28
 117 006c 09B0     		add	sp, sp, #36
 118              	.LCFI2:
 119              		.cfi_def_cfa_offset 12
 120              		@ sp needed
 121 006e 30BD     		pop	{r4, r5, pc}
 122              	.L4:
 123              		.align	2
 124              	.L3:
 125 0070 00100240 		.word	1073876992
 126 0074 00100140 		.word	1073811456
 127              		.cfi_endproc
 128              	.LFE69:
 130              		.section	.text.MX_DMA_Init,"ax",%progbits
 131              		.align	1
 132              		.syntax unified
 133              		.thumb
 134              		.thumb_func
 135              		.fpu softvfp
 137              	MX_DMA_Init:
 138              	.LFB68:
 196:Core/Src/main.c **** 
 139              		.loc 1 196 1 is_stmt 1 view -0
 140              		.cfi_startproc
 141              		@ args = 0, pretend = 0, frame = 8
 142              		@ frame_needed = 0, uses_anonymous_args = 0
 143 0000 00B5     		push	{lr}
 144              	.LCFI3:
 145              		.cfi_def_cfa_offset 4
 146              		.cfi_offset 14, -4
 147 0002 83B0     		sub	sp, sp, #12
 148              	.LCFI4:
 149              		.cfi_def_cfa_offset 16
 199:Core/Src/main.c **** 
 150              		.loc 1 199 3 view .LVU30
 151              	.LBB7:
 199:Core/Src/main.c **** 
 152              		.loc 1 199 3 view .LVU31
 199:Core/Src/main.c **** 
 153              		.loc 1 199 3 view .LVU32
 154 0004 0A4B     		ldr	r3, .L7
 155 0006 5A69     		ldr	r2, [r3, #20]
 156 0008 42F00102 		orr	r2, r2, #1
 157 000c 5A61     		str	r2, [r3, #20]
 199:Core/Src/main.c **** 
 158              		.loc 1 199 3 view .LVU33
 159 000e 5B69     		ldr	r3, [r3, #20]
 160 0010 03F00103 		and	r3, r3, #1
 161 0014 0193     		str	r3, [sp, #4]
 199:Core/Src/main.c **** 
 162              		.loc 1 199 3 view .LVU34
 163 0016 019B     		ldr	r3, [sp, #4]
 164              	.LBE7:
ARM GAS  C:\Users\user\AppData\Local\Temp\ccSTX0ka.s 			page 8


 203:Core/Src/main.c ****   HAL_NVIC_EnableIRQ(DMA1_Channel6_IRQn);
 165              		.loc 1 203 3 view .LVU35
 166 0018 0022     		movs	r2, #0
 167 001a 1146     		mov	r1, r2
 168 001c 1020     		movs	r0, #16
 169 001e FFF7FEFF 		bl	HAL_NVIC_SetPriority
 170              	.LVL2:
 204:Core/Src/main.c **** 
 171              		.loc 1 204 3 view .LVU36
 172 0022 1020     		movs	r0, #16
 173 0024 FFF7FEFF 		bl	HAL_NVIC_EnableIRQ
 174              	.LVL3:
 206:Core/Src/main.c **** 
 175              		.loc 1 206 1 is_stmt 0 view .LVU37
 176 0028 03B0     		add	sp, sp, #12
 177              	.LCFI5:
 178              		.cfi_def_cfa_offset 4
 179              		@ sp needed
 180 002a 5DF804FB 		ldr	pc, [sp], #4
 181              	.L8:
 182 002e 00BF     		.align	2
 183              	.L7:
 184 0030 00100240 		.word	1073876992
 185              		.cfi_endproc
 186              	.LFE68:
 188              		.section	.text.HAL_UARTEx_RxEventCallback,"ax",%progbits
 189              		.align	1
 190              		.global	HAL_UARTEx_RxEventCallback
 191              		.syntax unified
 192              		.thumb
 193              		.thumb_func
 194              		.fpu softvfp
 196              	HAL_UARTEx_RxEventCallback:
 197              	.LVL4:
 198              	.LFB70:
 233:Core/Src/main.c **** 
 234:Core/Src/main.c **** /* USER CODE BEGIN 4 */
 235:Core/Src/main.c **** 
 236:Core/Src/main.c **** void HAL_UARTEx_RxEventCallback(UART_HandleTypeDef *huart, uint16_t Size)
 237:Core/Src/main.c **** {
 199              		.loc 1 237 1 is_stmt 1 view -0
 200              		.cfi_startproc
 201              		@ args = 0, pretend = 0, frame = 0
 202              		@ frame_needed = 0, uses_anonymous_args = 0
 203              		.loc 1 237 1 is_stmt 0 view .LVU39
 204 0000 2DE9F041 		push	{r4, r5, r6, r7, r8, lr}
 205              	.LCFI6:
 206              		.cfi_def_cfa_offset 24
 207              		.cfi_offset 4, -24
 208              		.cfi_offset 5, -20
 209              		.cfi_offset 6, -16
 210              		.cfi_offset 7, -12
 211              		.cfi_offset 8, -8
 212              		.cfi_offset 14, -4
 238:Core/Src/main.c **** 	if (huart->Instance == USART2)
 213              		.loc 1 238 2 is_stmt 1 view .LVU40
 214              		.loc 1 238 11 is_stmt 0 view .LVU41
ARM GAS  C:\Users\user\AppData\Local\Temp\ccSTX0ka.s 			page 9


 215 0004 0268     		ldr	r2, [r0]
 216              		.loc 1 238 5 view .LVU42
 217 0006 214B     		ldr	r3, .L15
 218 0008 9A42     		cmp	r2, r3
 219 000a 07D0     		beq	.L14
 220              	.LVL5:
 221              	.L10:
 239:Core/Src/main.c **** 	{
 240:Core/Src/main.c **** 		oldPos = newPos;  // Update the last position before copying new data
 241:Core/Src/main.c **** 
 242:Core/Src/main.c **** 		/* If the data in large and it is about to exceed the buffer size, we have to route it to the sta
 243:Core/Src/main.c **** 		 * This is to maintain the circular buffer
 244:Core/Src/main.c **** 		 * The old data in the main buffer will be overlapped
 245:Core/Src/main.c **** 		 */
 246:Core/Src/main.c **** 		if (oldPos+Size > MainBuf_SIZE)  // If the current position + new data size is greater than the m
 247:Core/Src/main.c **** 		{
 248:Core/Src/main.c **** 			uint16_t datatocopy = MainBuf_SIZE-oldPos;  // find out how much space is left in the main buffe
 249:Core/Src/main.c **** 			memcpy ((uint8_t *)MainBuf+oldPos, RxBuf, datatocopy);  // copy data in that remaining space
 250:Core/Src/main.c **** 
 251:Core/Src/main.c **** 			oldPos = 0;  // point to the start of the buffer
 252:Core/Src/main.c **** 			memcpy ((uint8_t *)MainBuf, (uint8_t *)RxBuf+datatocopy, (Size-datatocopy));  // copy the remain
 253:Core/Src/main.c **** 			newPos = (Size-datatocopy);  // update the position
 254:Core/Src/main.c **** 		}
 255:Core/Src/main.c **** 
 256:Core/Src/main.c **** 		/* if the current position + new data size is less than the main buffer
 257:Core/Src/main.c **** 		 * we will simply copy the data into the buffer and update the position
 258:Core/Src/main.c **** 		 */
 259:Core/Src/main.c **** 		else
 260:Core/Src/main.c **** 		{
 261:Core/Src/main.c **** 			memcpy ((uint8_t *)MainBuf+oldPos, RxBuf, Size);
 262:Core/Src/main.c **** 			newPos = Size+oldPos;
 263:Core/Src/main.c **** 		}
 264:Core/Src/main.c **** 
 265:Core/Src/main.c **** 
 266:Core/Src/main.c **** 		/* start the DMA again */
 267:Core/Src/main.c **** 		HAL_UARTEx_ReceiveToIdle_DMA(&huart2, (uint8_t *) RxBuf, RxBuf_SIZE);
 268:Core/Src/main.c **** 		__HAL_DMA_DISABLE_IT(&hdma_usart2_rx, DMA_IT_HT);
 269:Core/Src/main.c **** 
 270:Core/Src/main.c **** 	}
 271:Core/Src/main.c ****   // for(uint16_t i = oldPos; i < newPos; i++){
 272:Core/Src/main.c ****     HAL_UART_Transmit(&huart2,MainBuf,sizeof(MainBuf),100);
 222              		.loc 1 272 5 is_stmt 1 view .LVU43
 223 000c 6423     		movs	r3, #100
 224 000e 1422     		movs	r2, #20
 225 0010 1F49     		ldr	r1, .L15+4
 226 0012 2048     		ldr	r0, .L15+8
 227 0014 FFF7FEFF 		bl	HAL_UART_Transmit
 228              	.LVL6:
 273:Core/Src/main.c ****   // }
 274:Core/Src/main.c ****   
 275:Core/Src/main.c **** }
 229              		.loc 1 275 1 is_stmt 0 view .LVU44
 230 0018 BDE8F081 		pop	{r4, r5, r6, r7, r8, pc}
 231              	.LVL7:
 232              	.L14:
 233              		.loc 1 275 1 view .LVU45
 234 001c 0C46     		mov	r4, r1
ARM GAS  C:\Users\user\AppData\Local\Temp\ccSTX0ka.s 			page 10


 240:Core/Src/main.c **** 
 235              		.loc 1 240 3 is_stmt 1 view .LVU46
 240:Core/Src/main.c **** 
 236              		.loc 1 240 10 is_stmt 0 view .LVU47
 237 001e 1E4B     		ldr	r3, .L15+12
 238 0020 1D88     		ldrh	r5, [r3]
 239 0022 1E4B     		ldr	r3, .L15+16
 240 0024 1D80     		strh	r5, [r3]	@ movhi
 246:Core/Src/main.c **** 		{
 241              		.loc 1 246 3 is_stmt 1 view .LVU48
 246:Core/Src/main.c **** 		{
 242              		.loc 1 246 13 is_stmt 0 view .LVU49
 243 0026 6B18     		adds	r3, r5, r1
 246:Core/Src/main.c **** 		{
 244              		.loc 1 246 6 view .LVU50
 245 0028 142B     		cmp	r3, #20
 246 002a 23DD     		ble	.L11
 247              	.LBB8:
 248:Core/Src/main.c **** 			memcpy ((uint8_t *)MainBuf+oldPos, RxBuf, datatocopy);  // copy data in that remaining space
 248              		.loc 1 248 4 is_stmt 1 view .LVU51
 248:Core/Src/main.c **** 			memcpy ((uint8_t *)MainBuf+oldPos, RxBuf, datatocopy);  // copy data in that remaining space
 249              		.loc 1 248 13 is_stmt 0 view .LVU52
 250 002c C5F11406 		rsb	r6, r5, #20
 251 0030 B6B2     		uxth	r6, r6
 252              	.LVL8:
 249:Core/Src/main.c **** 
 253              		.loc 1 249 4 is_stmt 1 view .LVU53
 254 0032 174F     		ldr	r7, .L15+4
 255 0034 DFF86880 		ldr	r8, .L15+20
 256 0038 3246     		mov	r2, r6
 257 003a 4146     		mov	r1, r8
 258              	.LVL9:
 249:Core/Src/main.c **** 
 259              		.loc 1 249 4 is_stmt 0 view .LVU54
 260 003c 7819     		adds	r0, r7, r5
 261              	.LVL10:
 249:Core/Src/main.c **** 
 262              		.loc 1 249 4 view .LVU55
 263 003e FFF7FEFF 		bl	memcpy
 264              	.LVL11:
 251:Core/Src/main.c **** 			memcpy ((uint8_t *)MainBuf, (uint8_t *)RxBuf+datatocopy, (Size-datatocopy));  // copy the remain
 265              		.loc 1 251 4 is_stmt 1 view .LVU56
 251:Core/Src/main.c **** 			memcpy ((uint8_t *)MainBuf, (uint8_t *)RxBuf+datatocopy, (Size-datatocopy));  // copy the remain
 266              		.loc 1 251 11 is_stmt 0 view .LVU57
 267 0042 164B     		ldr	r3, .L15+16
 268 0044 0022     		movs	r2, #0
 269 0046 1A80     		strh	r2, [r3]	@ movhi
 252:Core/Src/main.c **** 			newPos = (Size-datatocopy);  // update the position
 270              		.loc 1 252 4 is_stmt 1 view .LVU58
 271 0048 A21B     		subs	r2, r4, r6
 272 004a 08EB0601 		add	r1, r8, r6
 273 004e 3846     		mov	r0, r7
 274 0050 FFF7FEFF 		bl	memcpy
 275              	.LVL12:
 253:Core/Src/main.c **** 		}
 276              		.loc 1 253 4 view .LVU59
 253:Core/Src/main.c **** 		}
ARM GAS  C:\Users\user\AppData\Local\Temp\ccSTX0ka.s 			page 11


 277              		.loc 1 253 18 is_stmt 0 view .LVU60
 278 0054 143D     		subs	r5, r5, #20
 279 0056 2C44     		add	r4, r4, r5
 253:Core/Src/main.c **** 		}
 280              		.loc 1 253 11 view .LVU61
 281 0058 0F4B     		ldr	r3, .L15+12
 282 005a 1C80     		strh	r4, [r3]	@ movhi
 283              	.LVL13:
 284              	.L12:
 253:Core/Src/main.c **** 		}
 285              		.loc 1 253 11 view .LVU62
 286              	.LBE8:
 267:Core/Src/main.c **** 		__HAL_DMA_DISABLE_IT(&hdma_usart2_rx, DMA_IT_HT);
 287              		.loc 1 267 3 is_stmt 1 view .LVU63
 288 005c 0A22     		movs	r2, #10
 289 005e 1049     		ldr	r1, .L15+20
 290 0060 0C48     		ldr	r0, .L15+8
 291 0062 FFF7FEFF 		bl	HAL_UARTEx_ReceiveToIdle_DMA
 292              	.LVL14:
 268:Core/Src/main.c **** 
 293              		.loc 1 268 3 view .LVU64
 294 0066 0F4B     		ldr	r3, .L15+24
 295 0068 1A68     		ldr	r2, [r3]
 296 006a 1368     		ldr	r3, [r2]
 297 006c 23F00403 		bic	r3, r3, #4
 298 0070 1360     		str	r3, [r2]
 299 0072 CBE7     		b	.L10
 300              	.LVL15:
 301              	.L11:
 261:Core/Src/main.c **** 			newPos = Size+oldPos;
 302              		.loc 1 261 4 view .LVU65
 303 0074 0A46     		mov	r2, r1
 304 0076 0A49     		ldr	r1, .L15+20
 305              	.LVL16:
 261:Core/Src/main.c **** 			newPos = Size+oldPos;
 306              		.loc 1 261 4 is_stmt 0 view .LVU66
 307 0078 0548     		ldr	r0, .L15+4
 308              	.LVL17:
 261:Core/Src/main.c **** 			newPos = Size+oldPos;
 309              		.loc 1 261 4 view .LVU67
 310 007a 2844     		add	r0, r0, r5
 311 007c FFF7FEFF 		bl	memcpy
 312              	.LVL18:
 262:Core/Src/main.c **** 		}
 313              		.loc 1 262 4 is_stmt 1 view .LVU68
 262:Core/Src/main.c **** 		}
 314              		.loc 1 262 17 is_stmt 0 view .LVU69
 315 0080 064B     		ldr	r3, .L15+16
 316 0082 1B88     		ldrh	r3, [r3]
 317 0084 1C44     		add	r4, r4, r3
 262:Core/Src/main.c **** 		}
 318              		.loc 1 262 11 view .LVU70
 319 0086 044B     		ldr	r3, .L15+12
 320 0088 1C80     		strh	r4, [r3]	@ movhi
 321 008a E7E7     		b	.L12
 322              	.L16:
 323              		.align	2
ARM GAS  C:\Users\user\AppData\Local\Temp\ccSTX0ka.s 			page 12


 324              	.L15:
 325 008c 00440040 		.word	1073759232
 326 0090 00000000 		.word	MainBuf
 327 0094 00000000 		.word	huart2
 328 0098 00000000 		.word	.LANCHOR0
 329 009c 00000000 		.word	.LANCHOR1
 330 00a0 00000000 		.word	RxBuf
 331 00a4 00000000 		.word	hdma_usart2_rx
 332              		.cfi_endproc
 333              	.LFE70:
 335              		.section	.text.Error_Handler,"ax",%progbits
 336              		.align	1
 337              		.global	Error_Handler
 338              		.syntax unified
 339              		.thumb
 340              		.thumb_func
 341              		.fpu softvfp
 343              	Error_Handler:
 344              	.LFB71:
 276:Core/Src/main.c **** 
 277:Core/Src/main.c **** /* USER CODE END 4 */
 278:Core/Src/main.c **** 
 279:Core/Src/main.c **** /**
 280:Core/Src/main.c ****   * @brief  This function is executed in case of error occurrence.
 281:Core/Src/main.c ****   * @retval None
 282:Core/Src/main.c ****   */
 283:Core/Src/main.c **** void Error_Handler(void)
 284:Core/Src/main.c **** {
 345              		.loc 1 284 1 is_stmt 1 view -0
 346              		.cfi_startproc
 347              		@ Volatile: function does not return.
 348              		@ args = 0, pretend = 0, frame = 0
 349              		@ frame_needed = 0, uses_anonymous_args = 0
 350              		@ link register save eliminated.
 285:Core/Src/main.c ****   /* USER CODE BEGIN Error_Handler_Debug */
 286:Core/Src/main.c ****   /* User can add his own implementation to report the HAL error return state */
 287:Core/Src/main.c ****   __disable_irq();
 351              		.loc 1 287 3 view .LVU72
 352              	.LBB9:
 353              	.LBI9:
 354              		.file 2 "Drivers/CMSIS/Include/cmsis_gcc.h"
   1:Drivers/CMSIS/Include/cmsis_gcc.h **** /**************************************************************************//**
   2:Drivers/CMSIS/Include/cmsis_gcc.h ****  * @file     cmsis_gcc.h
   3:Drivers/CMSIS/Include/cmsis_gcc.h ****  * @brief    CMSIS compiler GCC header file
   4:Drivers/CMSIS/Include/cmsis_gcc.h ****  * @version  V5.0.4
   5:Drivers/CMSIS/Include/cmsis_gcc.h ****  * @date     09. April 2018
   6:Drivers/CMSIS/Include/cmsis_gcc.h ****  ******************************************************************************/
   7:Drivers/CMSIS/Include/cmsis_gcc.h **** /*
   8:Drivers/CMSIS/Include/cmsis_gcc.h ****  * Copyright (c) 2009-2018 Arm Limited. All rights reserved.
   9:Drivers/CMSIS/Include/cmsis_gcc.h ****  *
  10:Drivers/CMSIS/Include/cmsis_gcc.h ****  * SPDX-License-Identifier: Apache-2.0
  11:Drivers/CMSIS/Include/cmsis_gcc.h ****  *
  12:Drivers/CMSIS/Include/cmsis_gcc.h ****  * Licensed under the Apache License, Version 2.0 (the License); you may
  13:Drivers/CMSIS/Include/cmsis_gcc.h ****  * not use this file except in compliance with the License.
  14:Drivers/CMSIS/Include/cmsis_gcc.h ****  * You may obtain a copy of the License at
  15:Drivers/CMSIS/Include/cmsis_gcc.h ****  *
  16:Drivers/CMSIS/Include/cmsis_gcc.h ****  * www.apache.org/licenses/LICENSE-2.0
ARM GAS  C:\Users\user\AppData\Local\Temp\ccSTX0ka.s 			page 13


  17:Drivers/CMSIS/Include/cmsis_gcc.h ****  *
  18:Drivers/CMSIS/Include/cmsis_gcc.h ****  * Unless required by applicable law or agreed to in writing, software
  19:Drivers/CMSIS/Include/cmsis_gcc.h ****  * distributed under the License is distributed on an AS IS BASIS, WITHOUT
  20:Drivers/CMSIS/Include/cmsis_gcc.h ****  * WARRANTIES OR CONDITIONS OF ANY KIND, either express or implied.
  21:Drivers/CMSIS/Include/cmsis_gcc.h ****  * See the License for the specific language governing permissions and
  22:Drivers/CMSIS/Include/cmsis_gcc.h ****  * limitations under the License.
  23:Drivers/CMSIS/Include/cmsis_gcc.h ****  */
  24:Drivers/CMSIS/Include/cmsis_gcc.h **** 
  25:Drivers/CMSIS/Include/cmsis_gcc.h **** #ifndef __CMSIS_GCC_H
  26:Drivers/CMSIS/Include/cmsis_gcc.h **** #define __CMSIS_GCC_H
  27:Drivers/CMSIS/Include/cmsis_gcc.h **** 
  28:Drivers/CMSIS/Include/cmsis_gcc.h **** /* ignore some GCC warnings */
  29:Drivers/CMSIS/Include/cmsis_gcc.h **** #pragma GCC diagnostic push
  30:Drivers/CMSIS/Include/cmsis_gcc.h **** #pragma GCC diagnostic ignored "-Wsign-conversion"
  31:Drivers/CMSIS/Include/cmsis_gcc.h **** #pragma GCC diagnostic ignored "-Wconversion"
  32:Drivers/CMSIS/Include/cmsis_gcc.h **** #pragma GCC diagnostic ignored "-Wunused-parameter"
  33:Drivers/CMSIS/Include/cmsis_gcc.h **** 
  34:Drivers/CMSIS/Include/cmsis_gcc.h **** /* Fallback for __has_builtin */
  35:Drivers/CMSIS/Include/cmsis_gcc.h **** #ifndef __has_builtin
  36:Drivers/CMSIS/Include/cmsis_gcc.h ****   #define __has_builtin(x) (0)
  37:Drivers/CMSIS/Include/cmsis_gcc.h **** #endif
  38:Drivers/CMSIS/Include/cmsis_gcc.h **** 
  39:Drivers/CMSIS/Include/cmsis_gcc.h **** /* CMSIS compiler specific defines */
  40:Drivers/CMSIS/Include/cmsis_gcc.h **** #ifndef   __ASM
  41:Drivers/CMSIS/Include/cmsis_gcc.h ****   #define __ASM                                  __asm
  42:Drivers/CMSIS/Include/cmsis_gcc.h **** #endif
  43:Drivers/CMSIS/Include/cmsis_gcc.h **** #ifndef   __INLINE
  44:Drivers/CMSIS/Include/cmsis_gcc.h ****   #define __INLINE                               inline
  45:Drivers/CMSIS/Include/cmsis_gcc.h **** #endif
  46:Drivers/CMSIS/Include/cmsis_gcc.h **** #ifndef   __STATIC_INLINE
  47:Drivers/CMSIS/Include/cmsis_gcc.h ****   #define __STATIC_INLINE                        static inline
  48:Drivers/CMSIS/Include/cmsis_gcc.h **** #endif
  49:Drivers/CMSIS/Include/cmsis_gcc.h **** #ifndef   __STATIC_FORCEINLINE                 
  50:Drivers/CMSIS/Include/cmsis_gcc.h ****   #define __STATIC_FORCEINLINE                   __attribute__((always_inline)) static inline
  51:Drivers/CMSIS/Include/cmsis_gcc.h **** #endif                                           
  52:Drivers/CMSIS/Include/cmsis_gcc.h **** #ifndef   __NO_RETURN
  53:Drivers/CMSIS/Include/cmsis_gcc.h ****   #define __NO_RETURN                            __attribute__((__noreturn__))
  54:Drivers/CMSIS/Include/cmsis_gcc.h **** #endif
  55:Drivers/CMSIS/Include/cmsis_gcc.h **** #ifndef   __USED
  56:Drivers/CMSIS/Include/cmsis_gcc.h ****   #define __USED                                 __attribute__((used))
  57:Drivers/CMSIS/Include/cmsis_gcc.h **** #endif
  58:Drivers/CMSIS/Include/cmsis_gcc.h **** #ifndef   __WEAK
  59:Drivers/CMSIS/Include/cmsis_gcc.h ****   #define __WEAK                                 __attribute__((weak))
  60:Drivers/CMSIS/Include/cmsis_gcc.h **** #endif
  61:Drivers/CMSIS/Include/cmsis_gcc.h **** #ifndef   __PACKED
  62:Drivers/CMSIS/Include/cmsis_gcc.h ****   #define __PACKED                               __attribute__((packed, aligned(1)))
  63:Drivers/CMSIS/Include/cmsis_gcc.h **** #endif
  64:Drivers/CMSIS/Include/cmsis_gcc.h **** #ifndef   __PACKED_STRUCT
  65:Drivers/CMSIS/Include/cmsis_gcc.h ****   #define __PACKED_STRUCT                        struct __attribute__((packed, aligned(1)))
  66:Drivers/CMSIS/Include/cmsis_gcc.h **** #endif
  67:Drivers/CMSIS/Include/cmsis_gcc.h **** #ifndef   __PACKED_UNION
  68:Drivers/CMSIS/Include/cmsis_gcc.h ****   #define __PACKED_UNION                         union __attribute__((packed, aligned(1)))
  69:Drivers/CMSIS/Include/cmsis_gcc.h **** #endif
  70:Drivers/CMSIS/Include/cmsis_gcc.h **** #ifndef   __UNALIGNED_UINT32        /* deprecated */
  71:Drivers/CMSIS/Include/cmsis_gcc.h ****   #pragma GCC diagnostic push
  72:Drivers/CMSIS/Include/cmsis_gcc.h ****   #pragma GCC diagnostic ignored "-Wpacked"
  73:Drivers/CMSIS/Include/cmsis_gcc.h ****   #pragma GCC diagnostic ignored "-Wattributes"
ARM GAS  C:\Users\user\AppData\Local\Temp\ccSTX0ka.s 			page 14


  74:Drivers/CMSIS/Include/cmsis_gcc.h ****   struct __attribute__((packed)) T_UINT32 { uint32_t v; };
  75:Drivers/CMSIS/Include/cmsis_gcc.h ****   #pragma GCC diagnostic pop
  76:Drivers/CMSIS/Include/cmsis_gcc.h ****   #define __UNALIGNED_UINT32(x)                  (((struct T_UINT32 *)(x))->v)
  77:Drivers/CMSIS/Include/cmsis_gcc.h **** #endif
  78:Drivers/CMSIS/Include/cmsis_gcc.h **** #ifndef   __UNALIGNED_UINT16_WRITE
  79:Drivers/CMSIS/Include/cmsis_gcc.h ****   #pragma GCC diagnostic push
  80:Drivers/CMSIS/Include/cmsis_gcc.h ****   #pragma GCC diagnostic ignored "-Wpacked"
  81:Drivers/CMSIS/Include/cmsis_gcc.h ****   #pragma GCC diagnostic ignored "-Wattributes"
  82:Drivers/CMSIS/Include/cmsis_gcc.h ****   __PACKED_STRUCT T_UINT16_WRITE { uint16_t v; };
  83:Drivers/CMSIS/Include/cmsis_gcc.h ****   #pragma GCC diagnostic pop
  84:Drivers/CMSIS/Include/cmsis_gcc.h ****   #define __UNALIGNED_UINT16_WRITE(addr, val)    (void)((((struct T_UINT16_WRITE *)(void *)(addr))-
  85:Drivers/CMSIS/Include/cmsis_gcc.h **** #endif
  86:Drivers/CMSIS/Include/cmsis_gcc.h **** #ifndef   __UNALIGNED_UINT16_READ
  87:Drivers/CMSIS/Include/cmsis_gcc.h ****   #pragma GCC diagnostic push
  88:Drivers/CMSIS/Include/cmsis_gcc.h ****   #pragma GCC diagnostic ignored "-Wpacked"
  89:Drivers/CMSIS/Include/cmsis_gcc.h ****   #pragma GCC diagnostic ignored "-Wattributes"
  90:Drivers/CMSIS/Include/cmsis_gcc.h ****   __PACKED_STRUCT T_UINT16_READ { uint16_t v; };
  91:Drivers/CMSIS/Include/cmsis_gcc.h ****   #pragma GCC diagnostic pop
  92:Drivers/CMSIS/Include/cmsis_gcc.h ****   #define __UNALIGNED_UINT16_READ(addr)          (((const struct T_UINT16_READ *)(const void *)(add
  93:Drivers/CMSIS/Include/cmsis_gcc.h **** #endif
  94:Drivers/CMSIS/Include/cmsis_gcc.h **** #ifndef   __UNALIGNED_UINT32_WRITE
  95:Drivers/CMSIS/Include/cmsis_gcc.h ****   #pragma GCC diagnostic push
  96:Drivers/CMSIS/Include/cmsis_gcc.h ****   #pragma GCC diagnostic ignored "-Wpacked"
  97:Drivers/CMSIS/Include/cmsis_gcc.h ****   #pragma GCC diagnostic ignored "-Wattributes"
  98:Drivers/CMSIS/Include/cmsis_gcc.h ****   __PACKED_STRUCT T_UINT32_WRITE { uint32_t v; };
  99:Drivers/CMSIS/Include/cmsis_gcc.h ****   #pragma GCC diagnostic pop
 100:Drivers/CMSIS/Include/cmsis_gcc.h ****   #define __UNALIGNED_UINT32_WRITE(addr, val)    (void)((((struct T_UINT32_WRITE *)(void *)(addr))-
 101:Drivers/CMSIS/Include/cmsis_gcc.h **** #endif
 102:Drivers/CMSIS/Include/cmsis_gcc.h **** #ifndef   __UNALIGNED_UINT32_READ
 103:Drivers/CMSIS/Include/cmsis_gcc.h ****   #pragma GCC diagnostic push
 104:Drivers/CMSIS/Include/cmsis_gcc.h ****   #pragma GCC diagnostic ignored "-Wpacked"
 105:Drivers/CMSIS/Include/cmsis_gcc.h ****   #pragma GCC diagnostic ignored "-Wattributes"
 106:Drivers/CMSIS/Include/cmsis_gcc.h ****   __PACKED_STRUCT T_UINT32_READ { uint32_t v; };
 107:Drivers/CMSIS/Include/cmsis_gcc.h ****   #pragma GCC diagnostic pop
 108:Drivers/CMSIS/Include/cmsis_gcc.h ****   #define __UNALIGNED_UINT32_READ(addr)          (((const struct T_UINT32_READ *)(const void *)(add
 109:Drivers/CMSIS/Include/cmsis_gcc.h **** #endif
 110:Drivers/CMSIS/Include/cmsis_gcc.h **** #ifndef   __ALIGNED
 111:Drivers/CMSIS/Include/cmsis_gcc.h ****   #define __ALIGNED(x)                           __attribute__((aligned(x)))
 112:Drivers/CMSIS/Include/cmsis_gcc.h **** #endif
 113:Drivers/CMSIS/Include/cmsis_gcc.h **** #ifndef   __RESTRICT
 114:Drivers/CMSIS/Include/cmsis_gcc.h ****   #define __RESTRICT                             __restrict
 115:Drivers/CMSIS/Include/cmsis_gcc.h **** #endif
 116:Drivers/CMSIS/Include/cmsis_gcc.h **** 
 117:Drivers/CMSIS/Include/cmsis_gcc.h **** 
 118:Drivers/CMSIS/Include/cmsis_gcc.h **** /* ###########################  Core Function Access  ########################### */
 119:Drivers/CMSIS/Include/cmsis_gcc.h **** /** \ingroup  CMSIS_Core_FunctionInterface
 120:Drivers/CMSIS/Include/cmsis_gcc.h ****     \defgroup CMSIS_Core_RegAccFunctions CMSIS Core Register Access Functions
 121:Drivers/CMSIS/Include/cmsis_gcc.h ****   @{
 122:Drivers/CMSIS/Include/cmsis_gcc.h ****  */
 123:Drivers/CMSIS/Include/cmsis_gcc.h **** 
 124:Drivers/CMSIS/Include/cmsis_gcc.h **** /**
 125:Drivers/CMSIS/Include/cmsis_gcc.h ****   \brief   Enable IRQ Interrupts
 126:Drivers/CMSIS/Include/cmsis_gcc.h ****   \details Enables IRQ interrupts by clearing the I-bit in the CPSR.
 127:Drivers/CMSIS/Include/cmsis_gcc.h ****            Can only be executed in Privileged modes.
 128:Drivers/CMSIS/Include/cmsis_gcc.h ****  */
 129:Drivers/CMSIS/Include/cmsis_gcc.h **** __STATIC_FORCEINLINE void __enable_irq(void)
 130:Drivers/CMSIS/Include/cmsis_gcc.h **** {
ARM GAS  C:\Users\user\AppData\Local\Temp\ccSTX0ka.s 			page 15


 131:Drivers/CMSIS/Include/cmsis_gcc.h ****   __ASM volatile ("cpsie i" : : : "memory");
 132:Drivers/CMSIS/Include/cmsis_gcc.h **** }
 133:Drivers/CMSIS/Include/cmsis_gcc.h **** 
 134:Drivers/CMSIS/Include/cmsis_gcc.h **** 
 135:Drivers/CMSIS/Include/cmsis_gcc.h **** /**
 136:Drivers/CMSIS/Include/cmsis_gcc.h ****   \brief   Disable IRQ Interrupts
 137:Drivers/CMSIS/Include/cmsis_gcc.h ****   \details Disables IRQ interrupts by setting the I-bit in the CPSR.
 138:Drivers/CMSIS/Include/cmsis_gcc.h ****            Can only be executed in Privileged modes.
 139:Drivers/CMSIS/Include/cmsis_gcc.h ****  */
 140:Drivers/CMSIS/Include/cmsis_gcc.h **** __STATIC_FORCEINLINE void __disable_irq(void)
 355              		.loc 2 140 27 view .LVU73
 356              	.LBB10:
 141:Drivers/CMSIS/Include/cmsis_gcc.h **** {
 142:Drivers/CMSIS/Include/cmsis_gcc.h ****   __ASM volatile ("cpsid i" : : : "memory");
 357              		.loc 2 142 3 view .LVU74
 358              		.syntax unified
 359              	@ 142 "Drivers/CMSIS/Include/cmsis_gcc.h" 1
 360 0000 72B6     		cpsid i
 361              	@ 0 "" 2
 362              		.thumb
 363              		.syntax unified
 364              	.L18:
 365              	.LBE10:
 366              	.LBE9:
 288:Core/Src/main.c ****   while (1)
 367              		.loc 1 288 3 discriminator 1 view .LVU75
 289:Core/Src/main.c ****   {
 290:Core/Src/main.c ****   }
 368              		.loc 1 290 3 discriminator 1 view .LVU76
 369 0002 FEE7     		b	.L18
 370              		.cfi_endproc
 371              	.LFE71:
 373              		.section	.text.MX_USART2_UART_Init,"ax",%progbits
 374              		.align	1
 375              		.syntax unified
 376              		.thumb
 377              		.thumb_func
 378              		.fpu softvfp
 380              	MX_USART2_UART_Init:
 381              	.LFB67:
 165:Core/Src/main.c **** 
 382              		.loc 1 165 1 view -0
 383              		.cfi_startproc
 384              		@ args = 0, pretend = 0, frame = 0
 385              		@ frame_needed = 0, uses_anonymous_args = 0
 386 0000 08B5     		push	{r3, lr}
 387              	.LCFI7:
 388              		.cfi_def_cfa_offset 8
 389              		.cfi_offset 3, -8
 390              		.cfi_offset 14, -4
 174:Core/Src/main.c ****   huart2.Init.BaudRate = 115200;
 391              		.loc 1 174 3 view .LVU78
 174:Core/Src/main.c ****   huart2.Init.BaudRate = 115200;
 392              		.loc 1 174 19 is_stmt 0 view .LVU79
 393 0002 0A48     		ldr	r0, .L23
 394 0004 0A4B     		ldr	r3, .L23+4
 395 0006 0360     		str	r3, [r0]
ARM GAS  C:\Users\user\AppData\Local\Temp\ccSTX0ka.s 			page 16


 175:Core/Src/main.c ****   huart2.Init.WordLength = UART_WORDLENGTH_8B;
 396              		.loc 1 175 3 is_stmt 1 view .LVU80
 175:Core/Src/main.c ****   huart2.Init.WordLength = UART_WORDLENGTH_8B;
 397              		.loc 1 175 24 is_stmt 0 view .LVU81
 398 0008 4FF4E133 		mov	r3, #115200
 399 000c 4360     		str	r3, [r0, #4]
 176:Core/Src/main.c ****   huart2.Init.StopBits = UART_STOPBITS_1;
 400              		.loc 1 176 3 is_stmt 1 view .LVU82
 176:Core/Src/main.c ****   huart2.Init.StopBits = UART_STOPBITS_1;
 401              		.loc 1 176 26 is_stmt 0 view .LVU83
 402 000e 0023     		movs	r3, #0
 403 0010 8360     		str	r3, [r0, #8]
 177:Core/Src/main.c ****   huart2.Init.Parity = UART_PARITY_NONE;
 404              		.loc 1 177 3 is_stmt 1 view .LVU84
 177:Core/Src/main.c ****   huart2.Init.Parity = UART_PARITY_NONE;
 405              		.loc 1 177 24 is_stmt 0 view .LVU85
 406 0012 C360     		str	r3, [r0, #12]
 178:Core/Src/main.c ****   huart2.Init.Mode = UART_MODE_TX_RX;
 407              		.loc 1 178 3 is_stmt 1 view .LVU86
 178:Core/Src/main.c ****   huart2.Init.Mode = UART_MODE_TX_RX;
 408              		.loc 1 178 22 is_stmt 0 view .LVU87
 409 0014 0361     		str	r3, [r0, #16]
 179:Core/Src/main.c ****   huart2.Init.HwFlowCtl = UART_HWCONTROL_NONE;
 410              		.loc 1 179 3 is_stmt 1 view .LVU88
 179:Core/Src/main.c ****   huart2.Init.HwFlowCtl = UART_HWCONTROL_NONE;
 411              		.loc 1 179 20 is_stmt 0 view .LVU89
 412 0016 0C22     		movs	r2, #12
 413 0018 4261     		str	r2, [r0, #20]
 180:Core/Src/main.c ****   huart2.Init.OverSampling = UART_OVERSAMPLING_16;
 414              		.loc 1 180 3 is_stmt 1 view .LVU90
 180:Core/Src/main.c ****   huart2.Init.OverSampling = UART_OVERSAMPLING_16;
 415              		.loc 1 180 25 is_stmt 0 view .LVU91
 416 001a 8361     		str	r3, [r0, #24]
 181:Core/Src/main.c ****   if (HAL_UART_Init(&huart2) != HAL_OK)
 417              		.loc 1 181 3 is_stmt 1 view .LVU92
 181:Core/Src/main.c ****   if (HAL_UART_Init(&huart2) != HAL_OK)
 418              		.loc 1 181 28 is_stmt 0 view .LVU93
 419 001c C361     		str	r3, [r0, #28]
 182:Core/Src/main.c ****   {
 420              		.loc 1 182 3 is_stmt 1 view .LVU94
 182:Core/Src/main.c ****   {
 421              		.loc 1 182 7 is_stmt 0 view .LVU95
 422 001e FFF7FEFF 		bl	HAL_UART_Init
 423              	.LVL19:
 182:Core/Src/main.c ****   {
 424              		.loc 1 182 6 view .LVU96
 425 0022 00B9     		cbnz	r0, .L22
 190:Core/Src/main.c **** 
 426              		.loc 1 190 1 view .LVU97
 427 0024 08BD     		pop	{r3, pc}
 428              	.L22:
 184:Core/Src/main.c ****   }
 429              		.loc 1 184 5 is_stmt 1 view .LVU98
 430 0026 FFF7FEFF 		bl	Error_Handler
 431              	.LVL20:
 432              	.L24:
 433 002a 00BF     		.align	2
ARM GAS  C:\Users\user\AppData\Local\Temp\ccSTX0ka.s 			page 17


 434              	.L23:
 435 002c 00000000 		.word	huart2
 436 0030 00440040 		.word	1073759232
 437              		.cfi_endproc
 438              	.LFE67:
 440              		.section	.text.SystemClock_Config,"ax",%progbits
 441              		.align	1
 442              		.global	SystemClock_Config
 443              		.syntax unified
 444              		.thumb
 445              		.thumb_func
 446              		.fpu softvfp
 448              	SystemClock_Config:
 449              	.LFB66:
 130:Core/Src/main.c ****   RCC_OscInitTypeDef RCC_OscInitStruct = {0};
 450              		.loc 1 130 1 view -0
 451              		.cfi_startproc
 452              		@ args = 0, pretend = 0, frame = 64
 453              		@ frame_needed = 0, uses_anonymous_args = 0
 454 0000 00B5     		push	{lr}
 455              	.LCFI8:
 456              		.cfi_def_cfa_offset 4
 457              		.cfi_offset 14, -4
 458 0002 91B0     		sub	sp, sp, #68
 459              	.LCFI9:
 460              		.cfi_def_cfa_offset 72
 131:Core/Src/main.c ****   RCC_ClkInitTypeDef RCC_ClkInitStruct = {0};
 461              		.loc 1 131 3 view .LVU100
 131:Core/Src/main.c ****   RCC_ClkInitTypeDef RCC_ClkInitStruct = {0};
 462              		.loc 1 131 22 is_stmt 0 view .LVU101
 463 0004 2022     		movs	r2, #32
 464 0006 0021     		movs	r1, #0
 465 0008 0DEB0200 		add	r0, sp, r2
 466 000c FFF7FEFF 		bl	memset
 467              	.LVL21:
 132:Core/Src/main.c **** 
 468              		.loc 1 132 3 is_stmt 1 view .LVU102
 132:Core/Src/main.c **** 
 469              		.loc 1 132 22 is_stmt 0 view .LVU103
 470 0010 0023     		movs	r3, #0
 471 0012 0193     		str	r3, [sp, #4]
 472 0014 0293     		str	r3, [sp, #8]
 473 0016 0393     		str	r3, [sp, #12]
 474 0018 0493     		str	r3, [sp, #16]
 475 001a 0593     		str	r3, [sp, #20]
 137:Core/Src/main.c ****   RCC_OscInitStruct.HSEState = RCC_HSE_ON;
 476              		.loc 1 137 3 is_stmt 1 view .LVU104
 137:Core/Src/main.c ****   RCC_OscInitStruct.HSEState = RCC_HSE_ON;
 477              		.loc 1 137 36 is_stmt 0 view .LVU105
 478 001c 0123     		movs	r3, #1
 479 001e 0693     		str	r3, [sp, #24]
 138:Core/Src/main.c ****   RCC_OscInitStruct.PLL.PLLState = RCC_PLL_NONE;
 480              		.loc 1 138 3 is_stmt 1 view .LVU106
 138:Core/Src/main.c ****   RCC_OscInitStruct.PLL.PLLState = RCC_PLL_NONE;
 481              		.loc 1 138 30 is_stmt 0 view .LVU107
 482 0020 4FF48033 		mov	r3, #65536
 483 0024 0793     		str	r3, [sp, #28]
ARM GAS  C:\Users\user\AppData\Local\Temp\ccSTX0ka.s 			page 18


 139:Core/Src/main.c ****   if (HAL_RCC_OscConfig(&RCC_OscInitStruct) != HAL_OK)
 484              		.loc 1 139 3 is_stmt 1 view .LVU108
 140:Core/Src/main.c ****   {
 485              		.loc 1 140 3 view .LVU109
 140:Core/Src/main.c ****   {
 486              		.loc 1 140 7 is_stmt 0 view .LVU110
 487 0026 06A8     		add	r0, sp, #24
 488 0028 FFF7FEFF 		bl	HAL_RCC_OscConfig
 489              	.LVL22:
 140:Core/Src/main.c ****   {
 490              		.loc 1 140 6 view .LVU111
 491 002c 70B9     		cbnz	r0, .L29
 146:Core/Src/main.c ****                               |RCC_CLOCKTYPE_PCLK1|RCC_CLOCKTYPE_PCLK2;
 492              		.loc 1 146 3 is_stmt 1 view .LVU112
 146:Core/Src/main.c ****                               |RCC_CLOCKTYPE_PCLK1|RCC_CLOCKTYPE_PCLK2;
 493              		.loc 1 146 31 is_stmt 0 view .LVU113
 494 002e 0F23     		movs	r3, #15
 495 0030 0193     		str	r3, [sp, #4]
 148:Core/Src/main.c ****   RCC_ClkInitStruct.AHBCLKDivider = RCC_SYSCLK_DIV1;
 496              		.loc 1 148 3 is_stmt 1 view .LVU114
 148:Core/Src/main.c ****   RCC_ClkInitStruct.AHBCLKDivider = RCC_SYSCLK_DIV1;
 497              		.loc 1 148 34 is_stmt 0 view .LVU115
 498 0032 0123     		movs	r3, #1
 499 0034 0293     		str	r3, [sp, #8]
 149:Core/Src/main.c ****   RCC_ClkInitStruct.APB1CLKDivider = RCC_HCLK_DIV1;
 500              		.loc 1 149 3 is_stmt 1 view .LVU116
 149:Core/Src/main.c ****   RCC_ClkInitStruct.APB1CLKDivider = RCC_HCLK_DIV1;
 501              		.loc 1 149 35 is_stmt 0 view .LVU117
 502 0036 0021     		movs	r1, #0
 503 0038 0391     		str	r1, [sp, #12]
 150:Core/Src/main.c ****   RCC_ClkInitStruct.APB2CLKDivider = RCC_HCLK_DIV1;
 504              		.loc 1 150 3 is_stmt 1 view .LVU118
 150:Core/Src/main.c ****   RCC_ClkInitStruct.APB2CLKDivider = RCC_HCLK_DIV1;
 505              		.loc 1 150 36 is_stmt 0 view .LVU119
 506 003a 0491     		str	r1, [sp, #16]
 151:Core/Src/main.c **** 
 507              		.loc 1 151 3 is_stmt 1 view .LVU120
 151:Core/Src/main.c **** 
 508              		.loc 1 151 36 is_stmt 0 view .LVU121
 509 003c 0591     		str	r1, [sp, #20]
 153:Core/Src/main.c ****   {
 510              		.loc 1 153 3 is_stmt 1 view .LVU122
 153:Core/Src/main.c ****   {
 511              		.loc 1 153 7 is_stmt 0 view .LVU123
 512 003e 01A8     		add	r0, sp, #4
 513 0040 FFF7FEFF 		bl	HAL_RCC_ClockConfig
 514              	.LVL23:
 153:Core/Src/main.c ****   {
 515              		.loc 1 153 6 view .LVU124
 516 0044 20B9     		cbnz	r0, .L30
 157:Core/Src/main.c **** 
 517              		.loc 1 157 1 view .LVU125
 518 0046 11B0     		add	sp, sp, #68
 519              	.LCFI10:
 520              		.cfi_remember_state
 521              		.cfi_def_cfa_offset 4
 522              		@ sp needed
ARM GAS  C:\Users\user\AppData\Local\Temp\ccSTX0ka.s 			page 19


 523 0048 5DF804FB 		ldr	pc, [sp], #4
 524              	.L29:
 525              	.LCFI11:
 526              		.cfi_restore_state
 142:Core/Src/main.c ****   }
 527              		.loc 1 142 5 is_stmt 1 view .LVU126
 528 004c FFF7FEFF 		bl	Error_Handler
 529              	.LVL24:
 530              	.L30:
 155:Core/Src/main.c ****   }
 531              		.loc 1 155 5 view .LVU127
 532 0050 FFF7FEFF 		bl	Error_Handler
 533              	.LVL25:
 534              		.cfi_endproc
 535              	.LFE66:
 537              		.section	.text.main,"ax",%progbits
 538              		.align	1
 539              		.global	main
 540              		.syntax unified
 541              		.thumb
 542              		.thumb_func
 543              		.fpu softvfp
 545              	main:
 546              	.LFB65:
  79:Core/Src/main.c ****   /* USER CODE BEGIN 1 */
 547              		.loc 1 79 1 view -0
 548              		.cfi_startproc
 549              		@ Volatile: function does not return.
 550              		@ args = 0, pretend = 0, frame = 0
 551              		@ frame_needed = 0, uses_anonymous_args = 0
 552 0000 08B5     		push	{r3, lr}
 553              	.LCFI12:
 554              		.cfi_def_cfa_offset 8
 555              		.cfi_offset 3, -8
 556              		.cfi_offset 14, -4
  87:Core/Src/main.c **** 
 557              		.loc 1 87 3 view .LVU129
 558 0002 FFF7FEFF 		bl	HAL_Init
 559              	.LVL26:
  94:Core/Src/main.c **** 
 560              		.loc 1 94 3 view .LVU130
 561 0006 FFF7FEFF 		bl	SystemClock_Config
 562              	.LVL27:
 101:Core/Src/main.c ****   MX_DMA_Init();
 563              		.loc 1 101 3 view .LVU131
 564 000a FFF7FEFF 		bl	MX_GPIO_Init
 565              	.LVL28:
 102:Core/Src/main.c ****   MX_USART2_UART_Init();
 566              		.loc 1 102 3 view .LVU132
 567 000e FFF7FEFF 		bl	MX_DMA_Init
 568              	.LVL29:
 103:Core/Src/main.c ****   /* USER CODE BEGIN 2 */
 569              		.loc 1 103 3 view .LVU133
 570 0012 FFF7FEFF 		bl	MX_USART2_UART_Init
 571              	.LVL30:
 105:Core/Src/main.c ****   __HAL_DMA_DISABLE_IT(&hdma_usart2_rx, DMA_IT_HT);
 572              		.loc 1 105 3 view .LVU134
ARM GAS  C:\Users\user\AppData\Local\Temp\ccSTX0ka.s 			page 20


 573 0016 0A22     		movs	r2, #10
 574 0018 0549     		ldr	r1, .L34
 575 001a 0648     		ldr	r0, .L34+4
 576 001c FFF7FEFF 		bl	HAL_UARTEx_ReceiveToIdle_DMA
 577              	.LVL31:
 106:Core/Src/main.c ****   /* USER CODE END 2 */
 578              		.loc 1 106 3 view .LVU135
 579 0020 054B     		ldr	r3, .L34+8
 580 0022 1A68     		ldr	r2, [r3]
 581 0024 1368     		ldr	r3, [r2]
 582 0026 23F00403 		bic	r3, r3, #4
 583 002a 1360     		str	r3, [r2]
 111:Core/Src/main.c **** 
 584              		.loc 1 111 3 view .LVU136
 585              	.L32:
 113:Core/Src/main.c ****   {
 586              		.loc 1 113 3 discriminator 1 view .LVU137
 121:Core/Src/main.c ****   /* USER CODE END 3 */
 587              		.loc 1 121 3 discriminator 1 view .LVU138
 588 002c FEE7     		b	.L32
 589              	.L35:
 590 002e 00BF     		.align	2
 591              	.L34:
 592 0030 00000000 		.word	RxBuf
 593 0034 00000000 		.word	huart2
 594 0038 00000000 		.word	hdma_usart2_rx
 595              		.cfi_endproc
 596              	.LFE65:
 598              		.global	isOK
 599              		.global	newPos
 600              		.global	oldPos
 601              		.comm	MainBuf,20,4
 602              		.comm	RxBuf,10,4
 603              		.comm	hdma_usart2_rx,68,4
 604              		.comm	huart2,68,4
 605              		.section	.bss.isOK,"aw",%nobits
 606              		.align	2
 609              	isOK:
 610 0000 00000000 		.space	4
 611              		.section	.bss.newPos,"aw",%nobits
 612              		.align	1
 613              		.set	.LANCHOR0,. + 0
 616              	newPos:
 617 0000 0000     		.space	2
 618              		.section	.bss.oldPos,"aw",%nobits
 619              		.align	1
 620              		.set	.LANCHOR1,. + 0
 623              	oldPos:
 624 0000 0000     		.space	2
 625              		.text
 626              	.Letext0:
 627              		.file 3 "c:\\program files (x86)\\gnu tools arm embedded\\8 2019-q3-update\\arm-none-eabi\\include
 628              		.file 4 "c:\\program files (x86)\\gnu tools arm embedded\\8 2019-q3-update\\arm-none-eabi\\include
 629              		.file 5 "Drivers/CMSIS/Include/core_cm3.h"
 630              		.file 6 "Drivers/CMSIS/Device/ST/STM32F1xx/Include/system_stm32f1xx.h"
 631              		.file 7 "Drivers/CMSIS/Device/ST/STM32F1xx/Include/stm32f103xb.h"
 632              		.file 8 "Drivers/STM32F1xx_HAL_Driver/Inc/stm32f1xx_hal_def.h"
ARM GAS  C:\Users\user\AppData\Local\Temp\ccSTX0ka.s 			page 21


 633              		.file 9 "Drivers/STM32F1xx_HAL_Driver/Inc/stm32f1xx_hal_rcc.h"
 634              		.file 10 "Drivers/STM32F1xx_HAL_Driver/Inc/stm32f1xx_hal_rcc_ex.h"
 635              		.file 11 "Drivers/STM32F1xx_HAL_Driver/Inc/stm32f1xx_hal_gpio.h"
 636              		.file 12 "Drivers/STM32F1xx_HAL_Driver/Inc/stm32f1xx_hal_dma.h"
 637              		.file 13 "Drivers/STM32F1xx_HAL_Driver/Inc/stm32f1xx_hal_uart.h"
 638              		.file 14 "Drivers/STM32F1xx_HAL_Driver/Inc/stm32f1xx_hal.h"
 639              		.file 15 "c:\\program files (x86)\\gnu tools arm embedded\\8 2019-q3-update\\lib\\gcc\\arm-none-ea
 640              		.file 16 "c:\\program files (x86)\\gnu tools arm embedded\\8 2019-q3-update\\arm-none-eabi\\includ
 641              		.file 17 "c:\\program files (x86)\\gnu tools arm embedded\\8 2019-q3-update\\arm-none-eabi\\includ
 642              		.file 18 "c:\\program files (x86)\\gnu tools arm embedded\\8 2019-q3-update\\arm-none-eabi\\includ
 643              		.file 19 "Drivers/STM32F1xx_HAL_Driver/Inc/stm32f1xx_hal_cortex.h"
 644              		.file 20 "<built-in>"
ARM GAS  C:\Users\user\AppData\Local\Temp\ccSTX0ka.s 			page 22

