ARM GAS  C:\Users\user\AppData\Local\Temp\ccUyaNyM.s 			page 1


   1              		.cpu cortex-m3
   2              		.eabi_attribute 20, 1
   3              		.eabi_attribute 21, 1
   4              		.eabi_attribute 23, 3
   5              		.eabi_attribute 24, 1
   6              		.eabi_attribute 25, 1
   7              		.eabi_attribute 26, 1
   8              		.eabi_attribute 30, 1
   9              		.eabi_attribute 34, 1
  10              		.eabi_attribute 18, 4
  11              		.file	"main.c"
  12              		.text
  13              	.Ltext0:
  14              		.cfi_sections	.debug_frame
  15              		.section	.text.Sendcommand,"ax",%progbits
  16              		.align	1
  17              		.global	Sendcommand
  18              		.arch armv7-m
  19              		.syntax unified
  20              		.thumb
  21              		.thumb_func
  22              		.fpu softvfp
  24              	Sendcommand:
  25              	.LVL0:
  26              	.LFB67:
  27              		.file 1 "Core/Src/main.c"
   1:Core/Src/main.c **** /* USER CODE BEGIN Header */
   2:Core/Src/main.c **** /**
   3:Core/Src/main.c ****   ******************************************************************************
   4:Core/Src/main.c ****   * @file           : main.c
   5:Core/Src/main.c ****   * @brief          : Main program body
   6:Core/Src/main.c ****   ******************************************************************************
   7:Core/Src/main.c ****   * @attention
   8:Core/Src/main.c ****   *
   9:Core/Src/main.c ****   * <h2><center>&copy; Copyright (c) 2021 STMicroelectronics.
  10:Core/Src/main.c ****   * All rights reserved.</center></h2>
  11:Core/Src/main.c ****   *
  12:Core/Src/main.c ****   * This software component is licensed by ST under BSD 3-Clause license,
  13:Core/Src/main.c ****   * the "License"; You may not use this file except in compliance with the
  14:Core/Src/main.c ****   * License. You may obtain a copy of the License at:
  15:Core/Src/main.c ****   *                        opensource.org/licenses/BSD-3-Clause
  16:Core/Src/main.c ****   *
  17:Core/Src/main.c ****   ******************************************************************************
  18:Core/Src/main.c ****   */
  19:Core/Src/main.c **** /* USER CODE END Header */
  20:Core/Src/main.c **** /* Includes ------------------------------------------------------------------*/
  21:Core/Src/main.c **** #include "main.h"
  22:Core/Src/main.c **** #include "usart.h"
  23:Core/Src/main.c **** #include "gpio.h"
  24:Core/Src/main.c **** 
  25:Core/Src/main.c **** /* Private includes ----------------------------------------------------------*/
  26:Core/Src/main.c **** /* USER CODE BEGIN Includes */
  27:Core/Src/main.c **** 
  28:Core/Src/main.c **** /* USER CODE END Includes */
  29:Core/Src/main.c **** 
  30:Core/Src/main.c **** /* Private typedef -----------------------------------------------------------*/
  31:Core/Src/main.c **** /* USER CODE BEGIN PTD */
ARM GAS  C:\Users\user\AppData\Local\Temp\ccUyaNyM.s 			page 2


  32:Core/Src/main.c **** 
  33:Core/Src/main.c **** /* USER CODE END PTD */
  34:Core/Src/main.c **** 
  35:Core/Src/main.c **** /* Private define ------------------------------------------------------------*/
  36:Core/Src/main.c **** /* USER CODE BEGIN PD */
  37:Core/Src/main.c **** /* USER CODE END PD */
  38:Core/Src/main.c **** 
  39:Core/Src/main.c **** /* Private macro -------------------------------------------------------------*/
  40:Core/Src/main.c **** /* USER CODE BEGIN PM */
  41:Core/Src/main.c **** 
  42:Core/Src/main.c **** /* USER CODE END PM */
  43:Core/Src/main.c **** 
  44:Core/Src/main.c **** /* Private variables ---------------------------------------------------------*/
  45:Core/Src/main.c **** 
  46:Core/Src/main.c **** /* USER CODE BEGIN PV */
  47:Core/Src/main.c **** const uint8_t RFID_cmdnub[40][26] =
  48:Core/Src/main.c ****   {
  49:Core/Src/main.c ****     {0xBB, 0x00, 0x03, 0x00, 0x01, 0x00, 0x04, 0x7E,},       //0. Hardware version 
  50:Core/Src/main.c ****     {0xBB, 0x00, 0x03, 0x00, 0x01, 0x01, 0x05, 0x7E,},       //1. Software version 
  51:Core/Src/main.c ****     {0xBB, 0x00, 0x03, 0x00, 0x01, 0x02, 0x06, 0x7E,},       //2. manufacturers  
  52:Core/Src/main.c ****     {0xBB, 0x00, 0x22, 0x00, 0x00, 0x22, 0x7E,},             //3. Single polling instruction 
  53:Core/Src/main.c ****     {0xBB, 0x00, 0x27, 0x00, 0x03, 0x22, 0x27, 0x10, 0x83, 0x7E,}, //4. Multiple polling instructio
  54:Core/Src/main.c ****     {0xBB, 0x00, 0x28, 0x00, 0x00, 0x28, 0x7E,},             //5. Stop multiple polling instruction
  55:Core/Src/main.c ****     { 0xBB, 0x00, 0x0C, 0x00, 0x13, 0x01, 0x00, 0x00, 0x00, 0x20,
  56:Core/Src/main.c ****       0x60, 0x00, 0x30, 0x75, 0x1F, 0xEB, 0x70, 0x5C, 0x59, 0x04,
  57:Core/Src/main.c ****       0xE3, 0xD5, 0x0D, 0x70, 0xAD, 0x7E,
  58:Core/Src/main.c ****     },                        //6. Set the SELECT parameter instruction 
  59:Core/Src/main.c ****     {0xBB, 0x00, 0x0B, 0x00, 0x00, 0x0B, 0x7E,},              //7. Get the SELECT parameter 
  60:Core/Src/main.c ****     {0xBB, 0x00, 0x12, 0x00, 0x01, 0x01, 0x14, 0x7E,},        //8. Set the SELECT mode 
  61:Core/Src/main.c ****     { 0xBB, 0x00, 0x39, 0x00, 0x09, 0x00, 0x00, 0x00, 0x00, 0x03,
  62:Core/Src/main.c ****       0x00, 0x00, 0x00, 0x08, 0x4D, 0x7E,
  63:Core/Src/main.c ****     },                      //9. Read label data storage area 
  64:Core/Src/main.c ****     { 0xBB, 0x00, 0x49, 0x00, 0x11, 0x00, 0x00, 0x00, 0x00, 0x03,
  65:Core/Src/main.c ****       0x00, 0x00, 0x00, 0x04, 0x22, 0x22, 0x22, 0x22, 0x22, 0x22, 0x22, 0x22, 0x71, 0x7E
  66:Core/Src/main.c ****     },   //10. Write the label data store 
  67:Core/Src/main.c ****     { 0xBB, 0x00, 0x82, 0x00, 0x07, 0x00, 0x00, 0xFF,
  68:Core/Src/main.c ****       0xFF, 0x02, 0x00, 0x80, 0x09, 0x7E,
  69:Core/Src/main.c ****     },                       //11. Lock the LOCK label data store 
  70:Core/Src/main.c ****     { 0xBB, 0x00, 0x65, 0x00, 0x04, 0x00, 0x00, 0xFF, 0xFF, 0x67,
  71:Core/Src/main.c ****       0x7E,
  72:Core/Src/main.c ****     },                                                //12. Inactivate the kill tag 
  73:Core/Src/main.c ****     {0xBB, 0x00, 0x11, 0x00, 0x02, 0x00, 0xC0, 0xD3, 0x7E,}, //13. Set communication baud rate 
  74:Core/Src/main.c ****     {0xBB, 0x00, 0x0D, 0x00, 0x00, 0x0D, 0x7E,},            //14. Get parameters related to the Que
  75:Core/Src/main.c ****     {0xBB, 0x00, 0x0E, 0x00, 0x02, 0x10, 0x20, 0x40, 0x7E,}, //15. Set the Query parameter 
  76:Core/Src/main.c ****     {0xBB, 0x00, 0x07, 0x00, 0x01, 0x01, 0x09, 0x7E,},      //16. Set up work area 
  77:Core/Src/main.c ****     {0xBB, 0x00, 0x08, 0x00, 0x00, 0x08, 0x7E,},            //17. Acquire work locations 
  78:Core/Src/main.c ****     {0xBB, 0x00, 0xAB, 0x00, 0x01, 0x01, 0xAC, 0x7E,},      //18. Set up working channel 
  79:Core/Src/main.c ****     {0xBB, 0x00, 0xAA, 0x00, 0x00, 0xAA, 0x7E,},            //19. Get the working channel 
  80:Core/Src/main.c ****     {0xBB, 0x00, 0xAD, 0x00, 0x01, 0xFF, 0xAD, 0x7E,},      //20. Set to automatic frequency hoppin
  81:Core/Src/main.c ****     { 0xBB, 0x00, 0xA9, 0x00, 0x06, 0x05, 0x01, 0x02,
  82:Core/Src/main.c ****       0x03, 0x04, 0x05, 0xC3, 0x7E,
  83:Core/Src/main.c ****     },                             //21. Insert the working channel 
  84:Core/Src/main.c ****     {0xBB, 0x00, 0xB7, 0x00, 0x00, 0xB7, 0x7E,},            //22. Acquire transmitting power 
  85:Core/Src/main.c ****     {0xBB, 0x00, 0xB6, 0x00, 0x02, 0x07, 0xD0, 0x8F, 0x7E,}, //23. Set the transmitting power 
  86:Core/Src/main.c ****     {0xBB, 0x00, 0xB0, 0x00, 0x01, 0xFF, 0xB0, 0x7E,},      //24. Set up transmitting continuous ca
  87:Core/Src/main.c ****     {0xBB, 0x00, 0xF1, 0x00, 0x00, 0xF1, 0x7E,},            //25. Gets the receiving demodulator pa
  88:Core/Src/main.c ****     {0xBB, 0x00, 0xF0, 0x00, 0x04, 0x03, 0x06, 0x01, 0xB0, 0xAE, 0x7E,}, //26. Set the receiving de
ARM GAS  C:\Users\user\AppData\Local\Temp\ccUyaNyM.s 			page 3


  89:Core/Src/main.c ****     {0xBB, 0x00, 0xF2, 0x00, 0x00, 0xF2, 0x7E,},            //27. Test the RF input block signal 
  90:Core/Src/main.c ****     {0xBB, 0x00, 0xF3, 0x00, 0x00, 0xF3, 0x7E,},            //28. Test the RSSI signal at the RF in
  91:Core/Src/main.c ****     {0x00},
  92:Core/Src/main.c ****     {0xBB, 0x00, 0x17, 0x00, 0x00, 0x17, 0x7E,},            //30. Module hibernation 
  93:Core/Src/main.c ****     {0xBB, 0x00, 0x1D, 0x00, 0x01, 0x02, 0x20, 0x7E,},      //31. Idle hibernation time of module
  94:Core/Src/main.c ****     {0xBB, 0x00, 0x04, 0x00, 0x03, 0x01, 0x01, 0x03, 0x0C, 0x7E,}, //32. The IDLE mode 
  95:Core/Src/main.c ****     {0xBB, 0x00, 0xE1, 0x00, 0x05, 0x00, 0x00, 0xFF, 0xFF, 0x00, 0xE4, 0x7E,}, //33.NXP G2X label s
  96:Core/Src/main.c ****     {0xBB, 0x00, 0xE3, 0x00, 0x05, 0x00, 0x00, 0xFF, 0xFF, 0x01, 0xE7, 0x7E,}, //34. The NXP G2X la
  97:Core/Src/main.c ****     {0xBB, 0x00, 0xE4, 0x00, 0x00, 0xE4, 0x7E,},            //35. The NXP G2X tag supports the EAS_
  98:Core/Src/main.c ****     {0xBB, 0x00, 0xE0, 0x00, 0x06, 0x00, 0x00, 0xFF, 0xFF, 0x00, 0x00, 0xE4, 0x7E,}, //36.NXP G2X l
  99:Core/Src/main.c ****     { 0xBB, 0x00, 0xE5, 0x00, 0x08, 0x00, 0x00, 0xFF,
 100:Core/Src/main.c ****       0xFF, 0x01, 0x01, 0x40, 0x00, 0x2D, 0x7E,
 101:Core/Src/main.c ****     },                   //37.Impinj Monza 4 Qt tags support Qt instructions 
 102:Core/Src/main.c ****     { 0xBB, 0x00, 0xD3, 0x00, 0x0B, 0x00, 0x00, 0xFF,
 103:Core/Src/main.c ****       0xFF, 0x01, 0x03, 0x00, 0x00, 0x01, 0x07, 0x00, 0xE8, 0x7E,
 104:Core/Src/main.c ****     },   //38.The BlockPermalock directive permanently locks blocks of a user's Block 
 105:Core/Src/main.c ****     {0xBB, 0x00, 0x27, 0x00, 0x03, 0x22, 0x00, 0x14, 0x60, 0x7E} // 39. multiscan x20
 106:Core/Src/main.c ****   };
 107:Core/Src/main.c **** /* USER CODE END PV */
 108:Core/Src/main.c **** 
 109:Core/Src/main.c **** /* Private function prototypes -----------------------------------------------*/
 110:Core/Src/main.c **** void SystemClock_Config(void);
 111:Core/Src/main.c **** /* USER CODE BEGIN PFP */
 112:Core/Src/main.c **** void Sendcommand(uint8_t com_nub);
 113:Core/Src/main.c **** /* USER CODE END PFP */
 114:Core/Src/main.c **** 
 115:Core/Src/main.c **** /* Private user code ---------------------------------------------------------*/
 116:Core/Src/main.c **** /* USER CODE BEGIN 0 */
 117:Core/Src/main.c **** 
 118:Core/Src/main.c **** /* USER CODE END 0 */
 119:Core/Src/main.c **** 
 120:Core/Src/main.c **** /**
 121:Core/Src/main.c ****   * @brief  The application entry point.
 122:Core/Src/main.c ****   * @retval int
 123:Core/Src/main.c ****   */
 124:Core/Src/main.c **** int main(void)
 125:Core/Src/main.c **** {
 126:Core/Src/main.c ****   /* USER CODE BEGIN 1 */
 127:Core/Src/main.c **** 
 128:Core/Src/main.c ****   /* USER CODE END 1 */
 129:Core/Src/main.c **** 
 130:Core/Src/main.c ****   /* MCU Configuration--------------------------------------------------------*/
 131:Core/Src/main.c **** 
 132:Core/Src/main.c ****   /* Reset of all peripherals, Initializes the Flash interface and the Systick. */
 133:Core/Src/main.c ****   HAL_Init();
 134:Core/Src/main.c **** 
 135:Core/Src/main.c ****   /* USER CODE BEGIN Init */
 136:Core/Src/main.c **** 
 137:Core/Src/main.c ****   /* USER CODE END Init */
 138:Core/Src/main.c **** 
 139:Core/Src/main.c ****   /* Configure the system clock */
 140:Core/Src/main.c ****   SystemClock_Config();
 141:Core/Src/main.c **** 
 142:Core/Src/main.c ****   /* USER CODE BEGIN SysInit */
 143:Core/Src/main.c **** 
 144:Core/Src/main.c ****   /* USER CODE END SysInit */
 145:Core/Src/main.c **** 
ARM GAS  C:\Users\user\AppData\Local\Temp\ccUyaNyM.s 			page 4


 146:Core/Src/main.c ****   /* Initialize all configured peripherals */
 147:Core/Src/main.c ****   MX_GPIO_Init();
 148:Core/Src/main.c ****   MX_USART1_UART_Init();
 149:Core/Src/main.c ****   MX_USART2_UART_Init();
 150:Core/Src/main.c ****   /* USER CODE BEGIN 2 */
 151:Core/Src/main.c **** 
 152:Core/Src/main.c ****   /* USER CODE END 2 */
 153:Core/Src/main.c **** 
 154:Core/Src/main.c ****   /* Infinite loop */
 155:Core/Src/main.c ****   /* USER CODE BEGIN WHILE */
 156:Core/Src/main.c **** 
 157:Core/Src/main.c ****   char buffer[24];
 158:Core/Src/main.c ****   char msg[30];
 159:Core/Src/main.c **** 
 160:Core/Src/main.c ****   
 161:Core/Src/main.c **** 
 162:Core/Src/main.c ****   while (1)
 163:Core/Src/main.c ****   {
 164:Core/Src/main.c ****     /* USER CODE END WHILE */
 165:Core/Src/main.c **** 
 166:Core/Src/main.c ****     /* USER CODE BEGIN 3 */
 167:Core/Src/main.c **** 
 168:Core/Src/main.c ****     uint8_t data[] = "HELLO WORLD123 \r\n";
 169:Core/Src/main.c ****     // uint8_t newline[] = "\r\n";
 170:Core/Src/main.c **** 
 171:Core/Src/main.c ****     Sendcommand(3);
 172:Core/Src/main.c **** 
 173:Core/Src/main.c ****     uint8_t arr[23] = {0};
 174:Core/Src/main.c ****     uint8_t i = 0, myInt = 0;
 175:Core/Src/main.c ****     if (HAL_UART_Receive(&huart1, buffer, 1, 1000) == HAL_OK && buffer[0] == 0xBB)
 176:Core/Src/main.c ****     {
 177:Core/Src/main.c ****       while (buffer[0] != 0x7E)
 178:Core/Src/main.c ****       {
 179:Core/Src/main.c ****         HAL_UART_Receive(&huart1, buffer, 1, 1000);
 180:Core/Src/main.c ****         arr[i] = buffer[0]; //add buffer char to array
 181:Core/Src/main.c ****         i++;
 182:Core/Src/main.c ****       }
 183:Core/Src/main.c ****       sprintf(msg, "%d \n\r", arr);
 184:Core/Src/main.c ****       HAL_UART_Transmit(&huart2, msg, sizeof(msg), 100);
 185:Core/Src/main.c ****     }
 186:Core/Src/main.c ****     
 187:Core/Src/main.c **** 
 188:Core/Src/main.c ****     HAL_GPIO_TogglePin(LED_GPIO_Port,LED_Pin);
 189:Core/Src/main.c ****     HAL_Delay (5000);
 190:Core/Src/main.c **** 
 191:Core/Src/main.c ****   }
 192:Core/Src/main.c ****   /* USER CODE END 3 */
 193:Core/Src/main.c **** }
 194:Core/Src/main.c **** 
 195:Core/Src/main.c **** /**
 196:Core/Src/main.c ****   * @brief System Clock Configuration
 197:Core/Src/main.c ****   * @retval None
 198:Core/Src/main.c ****   */
 199:Core/Src/main.c **** void SystemClock_Config(void)
 200:Core/Src/main.c **** {
 201:Core/Src/main.c ****   RCC_OscInitTypeDef RCC_OscInitStruct = {0};
 202:Core/Src/main.c ****   RCC_ClkInitTypeDef RCC_ClkInitStruct = {0};
ARM GAS  C:\Users\user\AppData\Local\Temp\ccUyaNyM.s 			page 5


 203:Core/Src/main.c **** 
 204:Core/Src/main.c ****   /** Initializes the RCC Oscillators according to the specified parameters
 205:Core/Src/main.c ****   * in the RCC_OscInitTypeDef structure.
 206:Core/Src/main.c ****   */
 207:Core/Src/main.c ****   RCC_OscInitStruct.OscillatorType = RCC_OSCILLATORTYPE_HSE;
 208:Core/Src/main.c ****   RCC_OscInitStruct.HSEState = RCC_HSE_ON;
 209:Core/Src/main.c ****   RCC_OscInitStruct.PLL.PLLState = RCC_PLL_NONE;
 210:Core/Src/main.c ****   if (HAL_RCC_OscConfig(&RCC_OscInitStruct) != HAL_OK)
 211:Core/Src/main.c ****   {
 212:Core/Src/main.c ****     Error_Handler();
 213:Core/Src/main.c ****   }
 214:Core/Src/main.c ****   /** Initializes the CPU, AHB and APB buses clocks
 215:Core/Src/main.c ****   */
 216:Core/Src/main.c ****   RCC_ClkInitStruct.ClockType = RCC_CLOCKTYPE_HCLK|RCC_CLOCKTYPE_SYSCLK
 217:Core/Src/main.c ****                               |RCC_CLOCKTYPE_PCLK1|RCC_CLOCKTYPE_PCLK2;
 218:Core/Src/main.c ****   RCC_ClkInitStruct.SYSCLKSource = RCC_SYSCLKSOURCE_HSE;
 219:Core/Src/main.c ****   RCC_ClkInitStruct.AHBCLKDivider = RCC_SYSCLK_DIV1;
 220:Core/Src/main.c ****   RCC_ClkInitStruct.APB1CLKDivider = RCC_HCLK_DIV1;
 221:Core/Src/main.c ****   RCC_ClkInitStruct.APB2CLKDivider = RCC_HCLK_DIV1;
 222:Core/Src/main.c **** 
 223:Core/Src/main.c ****   if (HAL_RCC_ClockConfig(&RCC_ClkInitStruct, FLASH_LATENCY_0) != HAL_OK)
 224:Core/Src/main.c ****   {
 225:Core/Src/main.c ****     Error_Handler();
 226:Core/Src/main.c ****   }
 227:Core/Src/main.c **** }
 228:Core/Src/main.c **** 
 229:Core/Src/main.c **** /* USER CODE BEGIN 4 */
 230:Core/Src/main.c **** 
 231:Core/Src/main.c **** void Sendcommand(uint8_t com_nub)
 232:Core/Src/main.c **** {
  28              		.loc 1 232 1 view -0
  29              		.cfi_startproc
  30              		@ args = 0, pretend = 0, frame = 0
  31              		@ frame_needed = 0, uses_anonymous_args = 0
  32              		.loc 1 232 1 is_stmt 0 view .LVU1
  33 0000 38B5     		push	{r3, r4, r5, lr}
  34              	.LCFI0:
  35              		.cfi_def_cfa_offset 16
  36              		.cfi_offset 3, -16
  37              		.cfi_offset 4, -12
  38              		.cfi_offset 5, -8
  39              		.cfi_offset 14, -4
 233:Core/Src/main.c ****   uint8_t b = 5; //start from 5, because there's no command which is shorter than 5 digits
  40              		.loc 1 233 3 is_stmt 1 view .LVU2
  41              	.LVL1:
 234:Core/Src/main.c ****   while (RFID_cmdnub[com_nub][b] != 0x7E)
  42              		.loc 1 234 3 view .LVU3
 233:Core/Src/main.c ****   uint8_t b = 5; //start from 5, because there's no command which is shorter than 5 digits
  43              		.loc 1 233 11 is_stmt 0 view .LVU4
  44 0002 0522     		movs	r2, #5
  45              	.LVL2:
  46              	.L2:
  47              		.loc 1 234 30 view .LVU5
  48 0004 0546     		mov	r5, r0
  49 0006 094C     		ldr	r4, .L6
  50 0008 1A23     		movs	r3, #26
  51 000a 03FB0043 		mla	r3, r3, r0, r4
ARM GAS  C:\Users\user\AppData\Local\Temp\ccUyaNyM.s 			page 6


  52 000e 9B5C     		ldrb	r3, [r3, r2]	@ zero_extendqisi2
  53              		.loc 1 234 9 view .LVU6
  54 0010 7E2B     		cmp	r3, #126
  55 0012 02D0     		beq	.L5
 235:Core/Src/main.c ****   {
 236:Core/Src/main.c ****     b++;
  56              		.loc 1 236 5 is_stmt 1 view .LVU7
  57              		.loc 1 236 6 is_stmt 0 view .LVU8
  58 0014 0132     		adds	r2, r2, #1
  59              	.LVL3:
  60              		.loc 1 236 6 view .LVU9
  61 0016 D2B2     		uxtb	r2, r2
  62              	.LVL4:
  63              		.loc 1 236 6 view .LVU10
  64 0018 F4E7     		b	.L2
  65              	.L5:
 237:Core/Src/main.c ****   }
 238:Core/Src/main.c ****   HAL_UART_Transmit (&huart1, RFID_cmdnub[com_nub], b+1, 10);
  66              		.loc 1 238 3 is_stmt 1 view .LVU11
  67 001a 0A23     		movs	r3, #10
  68 001c 0132     		adds	r2, r2, #1
  69              	.LVL5:
  70              		.loc 1 238 3 is_stmt 0 view .LVU12
  71 001e 1A20     		movs	r0, #26
  72              	.LVL6:
  73              		.loc 1 238 3 view .LVU13
  74 0020 00FB0541 		mla	r1, r0, r5, r4
  75 0024 0248     		ldr	r0, .L6+4
  76 0026 FFF7FEFF 		bl	HAL_UART_Transmit
  77              	.LVL7:
 239:Core/Src/main.c **** 
 240:Core/Src/main.c **** }
  78              		.loc 1 240 1 view .LVU14
  79 002a 38BD     		pop	{r3, r4, r5, pc}
  80              	.L7:
  81              		.align	2
  82              	.L6:
  83 002c 00000000 		.word	.LANCHOR0
  84 0030 00000000 		.word	huart1
  85              		.cfi_endproc
  86              	.LFE67:
  88              		.section	.text.Error_Handler,"ax",%progbits
  89              		.align	1
  90              		.global	Error_Handler
  91              		.syntax unified
  92              		.thumb
  93              		.thumb_func
  94              		.fpu softvfp
  96              	Error_Handler:
  97              	.LFB68:
 241:Core/Src/main.c **** 
 242:Core/Src/main.c **** 
 243:Core/Src/main.c **** /* USER CODE END 4 */
 244:Core/Src/main.c **** 
 245:Core/Src/main.c **** /**
 246:Core/Src/main.c ****   * @brief  This function is executed in case of error occurrence.
 247:Core/Src/main.c ****   * @retval None
ARM GAS  C:\Users\user\AppData\Local\Temp\ccUyaNyM.s 			page 7


 248:Core/Src/main.c ****   */
 249:Core/Src/main.c **** void Error_Handler(void)
 250:Core/Src/main.c **** {
  98              		.loc 1 250 1 is_stmt 1 view -0
  99              		.cfi_startproc
 100              		@ Volatile: function does not return.
 101              		@ args = 0, pretend = 0, frame = 0
 102              		@ frame_needed = 0, uses_anonymous_args = 0
 103              		@ link register save eliminated.
 251:Core/Src/main.c ****   /* USER CODE BEGIN Error_Handler_Debug */
 252:Core/Src/main.c ****   /* User can add his own implementation to report the HAL error return state */
 253:Core/Src/main.c ****   __disable_irq();
 104              		.loc 1 253 3 view .LVU16
 105              	.LBB4:
 106              	.LBI4:
 107              		.file 2 "Drivers/CMSIS/Include/cmsis_gcc.h"
   1:Drivers/CMSIS/Include/cmsis_gcc.h **** /**************************************************************************//**
   2:Drivers/CMSIS/Include/cmsis_gcc.h ****  * @file     cmsis_gcc.h
   3:Drivers/CMSIS/Include/cmsis_gcc.h ****  * @brief    CMSIS compiler GCC header file
   4:Drivers/CMSIS/Include/cmsis_gcc.h ****  * @version  V5.0.4
   5:Drivers/CMSIS/Include/cmsis_gcc.h ****  * @date     09. April 2018
   6:Drivers/CMSIS/Include/cmsis_gcc.h ****  ******************************************************************************/
   7:Drivers/CMSIS/Include/cmsis_gcc.h **** /*
   8:Drivers/CMSIS/Include/cmsis_gcc.h ****  * Copyright (c) 2009-2018 Arm Limited. All rights reserved.
   9:Drivers/CMSIS/Include/cmsis_gcc.h ****  *
  10:Drivers/CMSIS/Include/cmsis_gcc.h ****  * SPDX-License-Identifier: Apache-2.0
  11:Drivers/CMSIS/Include/cmsis_gcc.h ****  *
  12:Drivers/CMSIS/Include/cmsis_gcc.h ****  * Licensed under the Apache License, Version 2.0 (the License); you may
  13:Drivers/CMSIS/Include/cmsis_gcc.h ****  * not use this file except in compliance with the License.
  14:Drivers/CMSIS/Include/cmsis_gcc.h ****  * You may obtain a copy of the License at
  15:Drivers/CMSIS/Include/cmsis_gcc.h ****  *
  16:Drivers/CMSIS/Include/cmsis_gcc.h ****  * www.apache.org/licenses/LICENSE-2.0
  17:Drivers/CMSIS/Include/cmsis_gcc.h ****  *
  18:Drivers/CMSIS/Include/cmsis_gcc.h ****  * Unless required by applicable law or agreed to in writing, software
  19:Drivers/CMSIS/Include/cmsis_gcc.h ****  * distributed under the License is distributed on an AS IS BASIS, WITHOUT
  20:Drivers/CMSIS/Include/cmsis_gcc.h ****  * WARRANTIES OR CONDITIONS OF ANY KIND, either express or implied.
  21:Drivers/CMSIS/Include/cmsis_gcc.h ****  * See the License for the specific language governing permissions and
  22:Drivers/CMSIS/Include/cmsis_gcc.h ****  * limitations under the License.
  23:Drivers/CMSIS/Include/cmsis_gcc.h ****  */
  24:Drivers/CMSIS/Include/cmsis_gcc.h **** 
  25:Drivers/CMSIS/Include/cmsis_gcc.h **** #ifndef __CMSIS_GCC_H
  26:Drivers/CMSIS/Include/cmsis_gcc.h **** #define __CMSIS_GCC_H
  27:Drivers/CMSIS/Include/cmsis_gcc.h **** 
  28:Drivers/CMSIS/Include/cmsis_gcc.h **** /* ignore some GCC warnings */
  29:Drivers/CMSIS/Include/cmsis_gcc.h **** #pragma GCC diagnostic push
  30:Drivers/CMSIS/Include/cmsis_gcc.h **** #pragma GCC diagnostic ignored "-Wsign-conversion"
  31:Drivers/CMSIS/Include/cmsis_gcc.h **** #pragma GCC diagnostic ignored "-Wconversion"
  32:Drivers/CMSIS/Include/cmsis_gcc.h **** #pragma GCC diagnostic ignored "-Wunused-parameter"
  33:Drivers/CMSIS/Include/cmsis_gcc.h **** 
  34:Drivers/CMSIS/Include/cmsis_gcc.h **** /* Fallback for __has_builtin */
  35:Drivers/CMSIS/Include/cmsis_gcc.h **** #ifndef __has_builtin
  36:Drivers/CMSIS/Include/cmsis_gcc.h ****   #define __has_builtin(x) (0)
  37:Drivers/CMSIS/Include/cmsis_gcc.h **** #endif
  38:Drivers/CMSIS/Include/cmsis_gcc.h **** 
  39:Drivers/CMSIS/Include/cmsis_gcc.h **** /* CMSIS compiler specific defines */
  40:Drivers/CMSIS/Include/cmsis_gcc.h **** #ifndef   __ASM
  41:Drivers/CMSIS/Include/cmsis_gcc.h ****   #define __ASM                                  __asm
ARM GAS  C:\Users\user\AppData\Local\Temp\ccUyaNyM.s 			page 8


  42:Drivers/CMSIS/Include/cmsis_gcc.h **** #endif
  43:Drivers/CMSIS/Include/cmsis_gcc.h **** #ifndef   __INLINE
  44:Drivers/CMSIS/Include/cmsis_gcc.h ****   #define __INLINE                               inline
  45:Drivers/CMSIS/Include/cmsis_gcc.h **** #endif
  46:Drivers/CMSIS/Include/cmsis_gcc.h **** #ifndef   __STATIC_INLINE
  47:Drivers/CMSIS/Include/cmsis_gcc.h ****   #define __STATIC_INLINE                        static inline
  48:Drivers/CMSIS/Include/cmsis_gcc.h **** #endif
  49:Drivers/CMSIS/Include/cmsis_gcc.h **** #ifndef   __STATIC_FORCEINLINE                 
  50:Drivers/CMSIS/Include/cmsis_gcc.h ****   #define __STATIC_FORCEINLINE                   __attribute__((always_inline)) static inline
  51:Drivers/CMSIS/Include/cmsis_gcc.h **** #endif                                           
  52:Drivers/CMSIS/Include/cmsis_gcc.h **** #ifndef   __NO_RETURN
  53:Drivers/CMSIS/Include/cmsis_gcc.h ****   #define __NO_RETURN                            __attribute__((__noreturn__))
  54:Drivers/CMSIS/Include/cmsis_gcc.h **** #endif
  55:Drivers/CMSIS/Include/cmsis_gcc.h **** #ifndef   __USED
  56:Drivers/CMSIS/Include/cmsis_gcc.h ****   #define __USED                                 __attribute__((used))
  57:Drivers/CMSIS/Include/cmsis_gcc.h **** #endif
  58:Drivers/CMSIS/Include/cmsis_gcc.h **** #ifndef   __WEAK
  59:Drivers/CMSIS/Include/cmsis_gcc.h ****   #define __WEAK                                 __attribute__((weak))
  60:Drivers/CMSIS/Include/cmsis_gcc.h **** #endif
  61:Drivers/CMSIS/Include/cmsis_gcc.h **** #ifndef   __PACKED
  62:Drivers/CMSIS/Include/cmsis_gcc.h ****   #define __PACKED                               __attribute__((packed, aligned(1)))
  63:Drivers/CMSIS/Include/cmsis_gcc.h **** #endif
  64:Drivers/CMSIS/Include/cmsis_gcc.h **** #ifndef   __PACKED_STRUCT
  65:Drivers/CMSIS/Include/cmsis_gcc.h ****   #define __PACKED_STRUCT                        struct __attribute__((packed, aligned(1)))
  66:Drivers/CMSIS/Include/cmsis_gcc.h **** #endif
  67:Drivers/CMSIS/Include/cmsis_gcc.h **** #ifndef   __PACKED_UNION
  68:Drivers/CMSIS/Include/cmsis_gcc.h ****   #define __PACKED_UNION                         union __attribute__((packed, aligned(1)))
  69:Drivers/CMSIS/Include/cmsis_gcc.h **** #endif
  70:Drivers/CMSIS/Include/cmsis_gcc.h **** #ifndef   __UNALIGNED_UINT32        /* deprecated */
  71:Drivers/CMSIS/Include/cmsis_gcc.h ****   #pragma GCC diagnostic push
  72:Drivers/CMSIS/Include/cmsis_gcc.h ****   #pragma GCC diagnostic ignored "-Wpacked"
  73:Drivers/CMSIS/Include/cmsis_gcc.h ****   #pragma GCC diagnostic ignored "-Wattributes"
  74:Drivers/CMSIS/Include/cmsis_gcc.h ****   struct __attribute__((packed)) T_UINT32 { uint32_t v; };
  75:Drivers/CMSIS/Include/cmsis_gcc.h ****   #pragma GCC diagnostic pop
  76:Drivers/CMSIS/Include/cmsis_gcc.h ****   #define __UNALIGNED_UINT32(x)                  (((struct T_UINT32 *)(x))->v)
  77:Drivers/CMSIS/Include/cmsis_gcc.h **** #endif
  78:Drivers/CMSIS/Include/cmsis_gcc.h **** #ifndef   __UNALIGNED_UINT16_WRITE
  79:Drivers/CMSIS/Include/cmsis_gcc.h ****   #pragma GCC diagnostic push
  80:Drivers/CMSIS/Include/cmsis_gcc.h ****   #pragma GCC diagnostic ignored "-Wpacked"
  81:Drivers/CMSIS/Include/cmsis_gcc.h ****   #pragma GCC diagnostic ignored "-Wattributes"
  82:Drivers/CMSIS/Include/cmsis_gcc.h ****   __PACKED_STRUCT T_UINT16_WRITE { uint16_t v; };
  83:Drivers/CMSIS/Include/cmsis_gcc.h ****   #pragma GCC diagnostic pop
  84:Drivers/CMSIS/Include/cmsis_gcc.h ****   #define __UNALIGNED_UINT16_WRITE(addr, val)    (void)((((struct T_UINT16_WRITE *)(void *)(addr))-
  85:Drivers/CMSIS/Include/cmsis_gcc.h **** #endif
  86:Drivers/CMSIS/Include/cmsis_gcc.h **** #ifndef   __UNALIGNED_UINT16_READ
  87:Drivers/CMSIS/Include/cmsis_gcc.h ****   #pragma GCC diagnostic push
  88:Drivers/CMSIS/Include/cmsis_gcc.h ****   #pragma GCC diagnostic ignored "-Wpacked"
  89:Drivers/CMSIS/Include/cmsis_gcc.h ****   #pragma GCC diagnostic ignored "-Wattributes"
  90:Drivers/CMSIS/Include/cmsis_gcc.h ****   __PACKED_STRUCT T_UINT16_READ { uint16_t v; };
  91:Drivers/CMSIS/Include/cmsis_gcc.h ****   #pragma GCC diagnostic pop
  92:Drivers/CMSIS/Include/cmsis_gcc.h ****   #define __UNALIGNED_UINT16_READ(addr)          (((const struct T_UINT16_READ *)(const void *)(add
  93:Drivers/CMSIS/Include/cmsis_gcc.h **** #endif
  94:Drivers/CMSIS/Include/cmsis_gcc.h **** #ifndef   __UNALIGNED_UINT32_WRITE
  95:Drivers/CMSIS/Include/cmsis_gcc.h ****   #pragma GCC diagnostic push
  96:Drivers/CMSIS/Include/cmsis_gcc.h ****   #pragma GCC diagnostic ignored "-Wpacked"
  97:Drivers/CMSIS/Include/cmsis_gcc.h ****   #pragma GCC diagnostic ignored "-Wattributes"
  98:Drivers/CMSIS/Include/cmsis_gcc.h ****   __PACKED_STRUCT T_UINT32_WRITE { uint32_t v; };
ARM GAS  C:\Users\user\AppData\Local\Temp\ccUyaNyM.s 			page 9


  99:Drivers/CMSIS/Include/cmsis_gcc.h ****   #pragma GCC diagnostic pop
 100:Drivers/CMSIS/Include/cmsis_gcc.h ****   #define __UNALIGNED_UINT32_WRITE(addr, val)    (void)((((struct T_UINT32_WRITE *)(void *)(addr))-
 101:Drivers/CMSIS/Include/cmsis_gcc.h **** #endif
 102:Drivers/CMSIS/Include/cmsis_gcc.h **** #ifndef   __UNALIGNED_UINT32_READ
 103:Drivers/CMSIS/Include/cmsis_gcc.h ****   #pragma GCC diagnostic push
 104:Drivers/CMSIS/Include/cmsis_gcc.h ****   #pragma GCC diagnostic ignored "-Wpacked"
 105:Drivers/CMSIS/Include/cmsis_gcc.h ****   #pragma GCC diagnostic ignored "-Wattributes"
 106:Drivers/CMSIS/Include/cmsis_gcc.h ****   __PACKED_STRUCT T_UINT32_READ { uint32_t v; };
 107:Drivers/CMSIS/Include/cmsis_gcc.h ****   #pragma GCC diagnostic pop
 108:Drivers/CMSIS/Include/cmsis_gcc.h ****   #define __UNALIGNED_UINT32_READ(addr)          (((const struct T_UINT32_READ *)(const void *)(add
 109:Drivers/CMSIS/Include/cmsis_gcc.h **** #endif
 110:Drivers/CMSIS/Include/cmsis_gcc.h **** #ifndef   __ALIGNED
 111:Drivers/CMSIS/Include/cmsis_gcc.h ****   #define __ALIGNED(x)                           __attribute__((aligned(x)))
 112:Drivers/CMSIS/Include/cmsis_gcc.h **** #endif
 113:Drivers/CMSIS/Include/cmsis_gcc.h **** #ifndef   __RESTRICT
 114:Drivers/CMSIS/Include/cmsis_gcc.h ****   #define __RESTRICT                             __restrict
 115:Drivers/CMSIS/Include/cmsis_gcc.h **** #endif
 116:Drivers/CMSIS/Include/cmsis_gcc.h **** 
 117:Drivers/CMSIS/Include/cmsis_gcc.h **** 
 118:Drivers/CMSIS/Include/cmsis_gcc.h **** /* ###########################  Core Function Access  ########################### */
 119:Drivers/CMSIS/Include/cmsis_gcc.h **** /** \ingroup  CMSIS_Core_FunctionInterface
 120:Drivers/CMSIS/Include/cmsis_gcc.h ****     \defgroup CMSIS_Core_RegAccFunctions CMSIS Core Register Access Functions
 121:Drivers/CMSIS/Include/cmsis_gcc.h ****   @{
 122:Drivers/CMSIS/Include/cmsis_gcc.h ****  */
 123:Drivers/CMSIS/Include/cmsis_gcc.h **** 
 124:Drivers/CMSIS/Include/cmsis_gcc.h **** /**
 125:Drivers/CMSIS/Include/cmsis_gcc.h ****   \brief   Enable IRQ Interrupts
 126:Drivers/CMSIS/Include/cmsis_gcc.h ****   \details Enables IRQ interrupts by clearing the I-bit in the CPSR.
 127:Drivers/CMSIS/Include/cmsis_gcc.h ****            Can only be executed in Privileged modes.
 128:Drivers/CMSIS/Include/cmsis_gcc.h ****  */
 129:Drivers/CMSIS/Include/cmsis_gcc.h **** __STATIC_FORCEINLINE void __enable_irq(void)
 130:Drivers/CMSIS/Include/cmsis_gcc.h **** {
 131:Drivers/CMSIS/Include/cmsis_gcc.h ****   __ASM volatile ("cpsie i" : : : "memory");
 132:Drivers/CMSIS/Include/cmsis_gcc.h **** }
 133:Drivers/CMSIS/Include/cmsis_gcc.h **** 
 134:Drivers/CMSIS/Include/cmsis_gcc.h **** 
 135:Drivers/CMSIS/Include/cmsis_gcc.h **** /**
 136:Drivers/CMSIS/Include/cmsis_gcc.h ****   \brief   Disable IRQ Interrupts
 137:Drivers/CMSIS/Include/cmsis_gcc.h ****   \details Disables IRQ interrupts by setting the I-bit in the CPSR.
 138:Drivers/CMSIS/Include/cmsis_gcc.h ****            Can only be executed in Privileged modes.
 139:Drivers/CMSIS/Include/cmsis_gcc.h ****  */
 140:Drivers/CMSIS/Include/cmsis_gcc.h **** __STATIC_FORCEINLINE void __disable_irq(void)
 108              		.loc 2 140 27 view .LVU17
 109              	.LBB5:
 141:Drivers/CMSIS/Include/cmsis_gcc.h **** {
 142:Drivers/CMSIS/Include/cmsis_gcc.h ****   __ASM volatile ("cpsid i" : : : "memory");
 110              		.loc 2 142 3 view .LVU18
 111              		.syntax unified
 112              	@ 142 "Drivers/CMSIS/Include/cmsis_gcc.h" 1
 113 0000 72B6     		cpsid i
 114              	@ 0 "" 2
 115              		.thumb
 116              		.syntax unified
 117              	.L9:
 118              	.LBE5:
 119              	.LBE4:
 254:Core/Src/main.c ****   while (1)
ARM GAS  C:\Users\user\AppData\Local\Temp\ccUyaNyM.s 			page 10


 120              		.loc 1 254 3 discriminator 1 view .LVU19
 255:Core/Src/main.c ****   {
 256:Core/Src/main.c ****   }
 121              		.loc 1 256 3 discriminator 1 view .LVU20
 122 0002 FEE7     		b	.L9
 123              		.cfi_endproc
 124              	.LFE68:
 126              		.section	.text.SystemClock_Config,"ax",%progbits
 127              		.align	1
 128              		.global	SystemClock_Config
 129              		.syntax unified
 130              		.thumb
 131              		.thumb_func
 132              		.fpu softvfp
 134              	SystemClock_Config:
 135              	.LFB66:
 200:Core/Src/main.c ****   RCC_OscInitTypeDef RCC_OscInitStruct = {0};
 136              		.loc 1 200 1 view -0
 137              		.cfi_startproc
 138              		@ args = 0, pretend = 0, frame = 64
 139              		@ frame_needed = 0, uses_anonymous_args = 0
 140 0000 00B5     		push	{lr}
 141              	.LCFI1:
 142              		.cfi_def_cfa_offset 4
 143              		.cfi_offset 14, -4
 144 0002 91B0     		sub	sp, sp, #68
 145              	.LCFI2:
 146              		.cfi_def_cfa_offset 72
 201:Core/Src/main.c ****   RCC_ClkInitTypeDef RCC_ClkInitStruct = {0};
 147              		.loc 1 201 3 view .LVU22
 201:Core/Src/main.c ****   RCC_ClkInitTypeDef RCC_ClkInitStruct = {0};
 148              		.loc 1 201 22 is_stmt 0 view .LVU23
 149 0004 2022     		movs	r2, #32
 150 0006 0021     		movs	r1, #0
 151 0008 0DEB0200 		add	r0, sp, r2
 152 000c FFF7FEFF 		bl	memset
 153              	.LVL8:
 202:Core/Src/main.c **** 
 154              		.loc 1 202 3 is_stmt 1 view .LVU24
 202:Core/Src/main.c **** 
 155              		.loc 1 202 22 is_stmt 0 view .LVU25
 156 0010 0023     		movs	r3, #0
 157 0012 0193     		str	r3, [sp, #4]
 158 0014 0293     		str	r3, [sp, #8]
 159 0016 0393     		str	r3, [sp, #12]
 160 0018 0493     		str	r3, [sp, #16]
 161 001a 0593     		str	r3, [sp, #20]
 207:Core/Src/main.c ****   RCC_OscInitStruct.HSEState = RCC_HSE_ON;
 162              		.loc 1 207 3 is_stmt 1 view .LVU26
 207:Core/Src/main.c ****   RCC_OscInitStruct.HSEState = RCC_HSE_ON;
 163              		.loc 1 207 36 is_stmt 0 view .LVU27
 164 001c 0123     		movs	r3, #1
 165 001e 0693     		str	r3, [sp, #24]
 208:Core/Src/main.c ****   RCC_OscInitStruct.PLL.PLLState = RCC_PLL_NONE;
 166              		.loc 1 208 3 is_stmt 1 view .LVU28
 208:Core/Src/main.c ****   RCC_OscInitStruct.PLL.PLLState = RCC_PLL_NONE;
 167              		.loc 1 208 30 is_stmt 0 view .LVU29
ARM GAS  C:\Users\user\AppData\Local\Temp\ccUyaNyM.s 			page 11


 168 0020 4FF48033 		mov	r3, #65536
 169 0024 0793     		str	r3, [sp, #28]
 209:Core/Src/main.c ****   if (HAL_RCC_OscConfig(&RCC_OscInitStruct) != HAL_OK)
 170              		.loc 1 209 3 is_stmt 1 view .LVU30
 210:Core/Src/main.c ****   {
 171              		.loc 1 210 3 view .LVU31
 210:Core/Src/main.c ****   {
 172              		.loc 1 210 7 is_stmt 0 view .LVU32
 173 0026 06A8     		add	r0, sp, #24
 174 0028 FFF7FEFF 		bl	HAL_RCC_OscConfig
 175              	.LVL9:
 210:Core/Src/main.c ****   {
 176              		.loc 1 210 6 view .LVU33
 177 002c 70B9     		cbnz	r0, .L14
 216:Core/Src/main.c ****                               |RCC_CLOCKTYPE_PCLK1|RCC_CLOCKTYPE_PCLK2;
 178              		.loc 1 216 3 is_stmt 1 view .LVU34
 216:Core/Src/main.c ****                               |RCC_CLOCKTYPE_PCLK1|RCC_CLOCKTYPE_PCLK2;
 179              		.loc 1 216 31 is_stmt 0 view .LVU35
 180 002e 0F23     		movs	r3, #15
 181 0030 0193     		str	r3, [sp, #4]
 218:Core/Src/main.c ****   RCC_ClkInitStruct.AHBCLKDivider = RCC_SYSCLK_DIV1;
 182              		.loc 1 218 3 is_stmt 1 view .LVU36
 218:Core/Src/main.c ****   RCC_ClkInitStruct.AHBCLKDivider = RCC_SYSCLK_DIV1;
 183              		.loc 1 218 34 is_stmt 0 view .LVU37
 184 0032 0123     		movs	r3, #1
 185 0034 0293     		str	r3, [sp, #8]
 219:Core/Src/main.c ****   RCC_ClkInitStruct.APB1CLKDivider = RCC_HCLK_DIV1;
 186              		.loc 1 219 3 is_stmt 1 view .LVU38
 219:Core/Src/main.c ****   RCC_ClkInitStruct.APB1CLKDivider = RCC_HCLK_DIV1;
 187              		.loc 1 219 35 is_stmt 0 view .LVU39
 188 0036 0021     		movs	r1, #0
 189 0038 0391     		str	r1, [sp, #12]
 220:Core/Src/main.c ****   RCC_ClkInitStruct.APB2CLKDivider = RCC_HCLK_DIV1;
 190              		.loc 1 220 3 is_stmt 1 view .LVU40
 220:Core/Src/main.c ****   RCC_ClkInitStruct.APB2CLKDivider = RCC_HCLK_DIV1;
 191              		.loc 1 220 36 is_stmt 0 view .LVU41
 192 003a 0491     		str	r1, [sp, #16]
 221:Core/Src/main.c **** 
 193              		.loc 1 221 3 is_stmt 1 view .LVU42
 221:Core/Src/main.c **** 
 194              		.loc 1 221 36 is_stmt 0 view .LVU43
 195 003c 0591     		str	r1, [sp, #20]
 223:Core/Src/main.c ****   {
 196              		.loc 1 223 3 is_stmt 1 view .LVU44
 223:Core/Src/main.c ****   {
 197              		.loc 1 223 7 is_stmt 0 view .LVU45
 198 003e 01A8     		add	r0, sp, #4
 199 0040 FFF7FEFF 		bl	HAL_RCC_ClockConfig
 200              	.LVL10:
 223:Core/Src/main.c ****   {
 201              		.loc 1 223 6 view .LVU46
 202 0044 20B9     		cbnz	r0, .L15
 227:Core/Src/main.c **** 
 203              		.loc 1 227 1 view .LVU47
 204 0046 11B0     		add	sp, sp, #68
 205              	.LCFI3:
 206              		.cfi_remember_state
ARM GAS  C:\Users\user\AppData\Local\Temp\ccUyaNyM.s 			page 12


 207              		.cfi_def_cfa_offset 4
 208              		@ sp needed
 209 0048 5DF804FB 		ldr	pc, [sp], #4
 210              	.L14:
 211              	.LCFI4:
 212              		.cfi_restore_state
 212:Core/Src/main.c ****   }
 213              		.loc 1 212 5 is_stmt 1 view .LVU48
 214 004c FFF7FEFF 		bl	Error_Handler
 215              	.LVL11:
 216              	.L15:
 225:Core/Src/main.c ****   }
 217              		.loc 1 225 5 view .LVU49
 218 0050 FFF7FEFF 		bl	Error_Handler
 219              	.LVL12:
 220              		.cfi_endproc
 221              	.LFE66:
 223              		.section	.text.main,"ax",%progbits
 224              		.align	1
 225              		.global	main
 226              		.syntax unified
 227              		.thumb
 228              		.thumb_func
 229              		.fpu softvfp
 231              	main:
 232              	.LFB65:
 125:Core/Src/main.c ****   /* USER CODE BEGIN 1 */
 233              		.loc 1 125 1 view -0
 234              		.cfi_startproc
 235              		@ args = 0, pretend = 0, frame = 80
 236              		@ frame_needed = 0, uses_anonymous_args = 0
 237 0000 10B5     		push	{r4, lr}
 238              	.LCFI5:
 239              		.cfi_def_cfa_offset 8
 240              		.cfi_offset 4, -8
 241              		.cfi_offset 14, -4
 242 0002 94B0     		sub	sp, sp, #80
 243              	.LCFI6:
 244              		.cfi_def_cfa_offset 88
 133:Core/Src/main.c **** 
 245              		.loc 1 133 3 view .LVU51
 246 0004 FFF7FEFF 		bl	HAL_Init
 247              	.LVL13:
 140:Core/Src/main.c **** 
 248              		.loc 1 140 3 view .LVU52
 249 0008 FFF7FEFF 		bl	SystemClock_Config
 250              	.LVL14:
 147:Core/Src/main.c ****   MX_USART1_UART_Init();
 251              		.loc 1 147 3 view .LVU53
 252 000c FFF7FEFF 		bl	MX_GPIO_Init
 253              	.LVL15:
 148:Core/Src/main.c ****   MX_USART2_UART_Init();
 254              		.loc 1 148 3 view .LVU54
 255 0010 FFF7FEFF 		bl	MX_USART1_UART_Init
 256              	.LVL16:
 149:Core/Src/main.c ****   /* USER CODE BEGIN 2 */
 257              		.loc 1 149 3 view .LVU55
ARM GAS  C:\Users\user\AppData\Local\Temp\ccUyaNyM.s 			page 13


 258 0014 FFF7FEFF 		bl	MX_USART2_UART_Init
 259              	.LVL17:
 260 0018 13E0     		b	.L20
 261              	.LVL18:
 262              	.L22:
 263              	.LBB6:
 264              	.LBB7:
 183:Core/Src/main.c ****       HAL_UART_Transmit(&huart2, msg, sizeof(msg), 100);
 265              		.loc 1 183 7 view .LVU56
 266 001a 6A46     		mov	r2, sp
 267 001c 1F49     		ldr	r1, .L23
 268 001e 06A8     		add	r0, sp, #24
 269 0020 FFF7FEFF 		bl	sprintf
 270              	.LVL19:
 184:Core/Src/main.c ****     }
 271              		.loc 1 184 7 view .LVU57
 272 0024 6423     		movs	r3, #100
 273 0026 1E22     		movs	r2, #30
 274 0028 06A9     		add	r1, sp, #24
 275 002a 1D48     		ldr	r0, .L23+4
 276 002c FFF7FEFF 		bl	HAL_UART_Transmit
 277              	.LVL20:
 278              	.L17:
 184:Core/Src/main.c ****     }
 279              		.loc 1 184 7 is_stmt 0 view .LVU58
 280              	.LBE7:
 188:Core/Src/main.c ****     HAL_Delay (5000);
 281              		.loc 1 188 5 is_stmt 1 view .LVU59
 282 0030 4FF40051 		mov	r1, #8192
 283 0034 1B48     		ldr	r0, .L23+8
 284 0036 FFF7FEFF 		bl	HAL_GPIO_TogglePin
 285              	.LVL21:
 189:Core/Src/main.c **** 
 286              		.loc 1 189 5 view .LVU60
 287 003a 41F28830 		movw	r0, #5000
 288 003e FFF7FEFF 		bl	HAL_Delay
 289              	.LVL22:
 290              	.L20:
 189:Core/Src/main.c **** 
 291              		.loc 1 189 5 is_stmt 0 view .LVU61
 292              	.LBE6:
 157:Core/Src/main.c ****   char msg[30];
 293              		.loc 1 157 3 is_stmt 1 view .LVU62
 158:Core/Src/main.c **** 
 294              		.loc 1 158 3 view .LVU63
 162:Core/Src/main.c ****   {
 295              		.loc 1 162 3 view .LVU64
 296              	.LBB9:
 168:Core/Src/main.c ****     // uint8_t newline[] = "\r\n";
 297              		.loc 1 168 5 view .LVU65
 171:Core/Src/main.c **** 
 298              		.loc 1 171 5 view .LVU66
 299 0042 0320     		movs	r0, #3
 300 0044 FFF7FEFF 		bl	Sendcommand
 301              	.LVL23:
 173:Core/Src/main.c ****     uint8_t i = 0, myInt = 0;
 302              		.loc 1 173 5 view .LVU67
ARM GAS  C:\Users\user\AppData\Local\Temp\ccUyaNyM.s 			page 14


 173:Core/Src/main.c ****     uint8_t i = 0, myInt = 0;
 303              		.loc 1 173 13 is_stmt 0 view .LVU68
 304 0048 0023     		movs	r3, #0
 305 004a 0093     		str	r3, [sp]
 306 004c 0193     		str	r3, [sp, #4]
 307 004e 0293     		str	r3, [sp, #8]
 308 0050 0393     		str	r3, [sp, #12]
 309 0052 0493     		str	r3, [sp, #16]
 310 0054 CDF81330 		str	r3, [sp, #19]	@ unaligned
 174:Core/Src/main.c ****     if (HAL_UART_Receive(&huart1, buffer, 1, 1000) == HAL_OK && buffer[0] == 0xBB)
 311              		.loc 1 174 5 is_stmt 1 view .LVU69
 312              	.LVL24:
 175:Core/Src/main.c ****     {
 313              		.loc 1 175 5 view .LVU70
 175:Core/Src/main.c ****     {
 314              		.loc 1 175 9 is_stmt 0 view .LVU71
 315 0058 4FF47A73 		mov	r3, #1000
 316 005c 0122     		movs	r2, #1
 317 005e 0EA9     		add	r1, sp, #56
 318 0060 1148     		ldr	r0, .L23+12
 319 0062 FFF7FEFF 		bl	HAL_UART_Receive
 320              	.LVL25:
 175:Core/Src/main.c ****     {
 321              		.loc 1 175 8 view .LVU72
 322 0066 0446     		mov	r4, r0
 323 0068 0028     		cmp	r0, #0
 324 006a E1D1     		bne	.L17
 175:Core/Src/main.c ****     {
 325              		.loc 1 175 71 discriminator 1 view .LVU73
 326 006c 9DF83830 		ldrb	r3, [sp, #56]	@ zero_extendqisi2
 175:Core/Src/main.c ****     {
 327              		.loc 1 175 62 discriminator 1 view .LVU74
 328 0070 BB2B     		cmp	r3, #187
 329 0072 DDD1     		bne	.L17
 330              	.LVL26:
 331              	.L18:
 332              	.LBB8:
 177:Core/Src/main.c ****       {
 333              		.loc 1 177 20 view .LVU75
 334 0074 9DF83830 		ldrb	r3, [sp, #56]	@ zero_extendqisi2
 177:Core/Src/main.c ****       {
 335              		.loc 1 177 13 view .LVU76
 336 0078 7E2B     		cmp	r3, #126
 337 007a CED0     		beq	.L22
 179:Core/Src/main.c ****         arr[i] = buffer[0]; //add buffer char to array
 338              		.loc 1 179 9 is_stmt 1 view .LVU77
 339 007c 4FF47A73 		mov	r3, #1000
 340 0080 0122     		movs	r2, #1
 341 0082 0EA9     		add	r1, sp, #56
 342 0084 0848     		ldr	r0, .L23+12
 343 0086 FFF7FEFF 		bl	HAL_UART_Receive
 344              	.LVL27:
 180:Core/Src/main.c ****         i++;
 345              		.loc 1 180 9 view .LVU78
 180:Core/Src/main.c ****         i++;
 346              		.loc 1 180 24 is_stmt 0 view .LVU79
 347 008a 9DF83820 		ldrb	r2, [sp, #56]	@ zero_extendqisi2
ARM GAS  C:\Users\user\AppData\Local\Temp\ccUyaNyM.s 			page 15


 180:Core/Src/main.c ****         i++;
 348              		.loc 1 180 16 view .LVU80
 349 008e 14AB     		add	r3, sp, #80
 350 0090 2344     		add	r3, r3, r4
 351 0092 03F8502C 		strb	r2, [r3, #-80]
 181:Core/Src/main.c ****       }
 352              		.loc 1 181 9 is_stmt 1 view .LVU81
 181:Core/Src/main.c ****       }
 353              		.loc 1 181 10 is_stmt 0 view .LVU82
 354 0096 0134     		adds	r4, r4, #1
 355              	.LVL28:
 181:Core/Src/main.c ****       }
 356              		.loc 1 181 10 view .LVU83
 357 0098 E4B2     		uxtb	r4, r4
 358              	.LVL29:
 181:Core/Src/main.c ****       }
 359              		.loc 1 181 10 view .LVU84
 360 009a EBE7     		b	.L18
 361              	.L24:
 362              		.align	2
 363              	.L23:
 364 009c 00000000 		.word	.LC0
 365 00a0 00000000 		.word	huart2
 366 00a4 00100140 		.word	1073811456
 367 00a8 00000000 		.word	huart1
 368              	.LBE8:
 369              	.LBE9:
 370              		.cfi_endproc
 371              	.LFE65:
 373              		.global	RFID_cmdnub
 374              		.section	.rodata.RFID_cmdnub,"a"
 375              		.align	2
 376              		.set	.LANCHOR0,. + 0
 379              	RFID_cmdnub:
 380 0000 BB       		.byte	-69
 381 0001 00       		.byte	0
 382 0002 03       		.byte	3
 383 0003 00       		.byte	0
 384 0004 01       		.byte	1
 385 0005 00       		.byte	0
 386 0006 04       		.byte	4
 387 0007 7E       		.byte	126
 388 0008 00000000 		.space	18
 388      00000000 
 388      00000000 
 388      00000000 
 388      0000
 389 001a BB       		.byte	-69
 390 001b 00       		.byte	0
 391 001c 03       		.byte	3
 392 001d 00       		.byte	0
 393 001e 01       		.byte	1
 394 001f 01       		.byte	1
 395 0020 05       		.byte	5
 396 0021 7E       		.byte	126
 397 0022 00000000 		.space	18
 397      00000000 
ARM GAS  C:\Users\user\AppData\Local\Temp\ccUyaNyM.s 			page 16


 397      00000000 
 397      00000000 
 397      0000
 398 0034 BB       		.byte	-69
 399 0035 00       		.byte	0
 400 0036 03       		.byte	3
 401 0037 00       		.byte	0
 402 0038 01       		.byte	1
 403 0039 02       		.byte	2
 404 003a 06       		.byte	6
 405 003b 7E       		.byte	126
 406 003c 00000000 		.space	18
 406      00000000 
 406      00000000 
 406      00000000 
 406      0000
 407 004e BB       		.byte	-69
 408 004f 00       		.byte	0
 409 0050 22       		.byte	34
 410 0051 00       		.byte	0
 411 0052 00       		.byte	0
 412 0053 22       		.byte	34
 413 0054 7E       		.byte	126
 414 0055 00000000 		.space	19
 414      00000000 
 414      00000000 
 414      00000000 
 414      000000
 415 0068 BB       		.byte	-69
 416 0069 00       		.byte	0
 417 006a 27       		.byte	39
 418 006b 00       		.byte	0
 419 006c 03       		.byte	3
 420 006d 22       		.byte	34
 421 006e 27       		.byte	39
 422 006f 10       		.byte	16
 423 0070 83       		.byte	-125
 424 0071 7E       		.byte	126
 425 0072 00000000 		.space	16
 425      00000000 
 425      00000000 
 425      00000000 
 426 0082 BB       		.byte	-69
 427 0083 00       		.byte	0
 428 0084 28       		.byte	40
 429 0085 00       		.byte	0
 430 0086 00       		.byte	0
 431 0087 28       		.byte	40
 432 0088 7E       		.byte	126
 433 0089 00000000 		.space	19
 433      00000000 
 433      00000000 
 433      00000000 
 433      000000
 434 009c BB       		.byte	-69
 435 009d 00       		.byte	0
 436 009e 0C       		.byte	12
ARM GAS  C:\Users\user\AppData\Local\Temp\ccUyaNyM.s 			page 17


 437 009f 00       		.byte	0
 438 00a0 13       		.byte	19
 439 00a1 01       		.byte	1
 440 00a2 00       		.byte	0
 441 00a3 00       		.byte	0
 442 00a4 00       		.byte	0
 443 00a5 20       		.byte	32
 444 00a6 60       		.byte	96
 445 00a7 00       		.byte	0
 446 00a8 30       		.byte	48
 447 00a9 75       		.byte	117
 448 00aa 1F       		.byte	31
 449 00ab EB       		.byte	-21
 450 00ac 70       		.byte	112
 451 00ad 5C       		.byte	92
 452 00ae 59       		.byte	89
 453 00af 04       		.byte	4
 454 00b0 E3       		.byte	-29
 455 00b1 D5       		.byte	-43
 456 00b2 0D       		.byte	13
 457 00b3 70       		.byte	112
 458 00b4 AD       		.byte	-83
 459 00b5 7E       		.byte	126
 460 00b6 BB       		.byte	-69
 461 00b7 00       		.byte	0
 462 00b8 0B       		.byte	11
 463 00b9 00       		.byte	0
 464 00ba 00       		.byte	0
 465 00bb 0B       		.byte	11
 466 00bc 7E       		.byte	126
 467 00bd 00000000 		.space	19
 467      00000000 
 467      00000000 
 467      00000000 
 467      000000
 468 00d0 BB       		.byte	-69
 469 00d1 00       		.byte	0
 470 00d2 12       		.byte	18
 471 00d3 00       		.byte	0
 472 00d4 01       		.byte	1
 473 00d5 01       		.byte	1
 474 00d6 14       		.byte	20
 475 00d7 7E       		.byte	126
 476 00d8 00000000 		.space	18
 476      00000000 
 476      00000000 
 476      00000000 
 476      0000
 477 00ea BB       		.byte	-69
 478 00eb 00       		.byte	0
 479 00ec 39       		.byte	57
 480 00ed 00       		.byte	0
 481 00ee 09       		.byte	9
 482 00ef 00       		.byte	0
 483 00f0 00       		.byte	0
 484 00f1 00       		.byte	0
 485 00f2 00       		.byte	0
ARM GAS  C:\Users\user\AppData\Local\Temp\ccUyaNyM.s 			page 18


 486 00f3 03       		.byte	3
 487 00f4 00       		.byte	0
 488 00f5 00       		.byte	0
 489 00f6 00       		.byte	0
 490 00f7 08       		.byte	8
 491 00f8 4D       		.byte	77
 492 00f9 7E       		.byte	126
 493 00fa 00000000 		.space	10
 493      00000000 
 493      0000
 494 0104 BB       		.byte	-69
 495 0105 00       		.byte	0
 496 0106 49       		.byte	73
 497 0107 00       		.byte	0
 498 0108 11       		.byte	17
 499 0109 00       		.byte	0
 500 010a 00       		.byte	0
 501 010b 00       		.byte	0
 502 010c 00       		.byte	0
 503 010d 03       		.byte	3
 504 010e 00       		.byte	0
 505 010f 00       		.byte	0
 506 0110 00       		.byte	0
 507 0111 04       		.byte	4
 508 0112 22       		.byte	34
 509 0113 22       		.byte	34
 510 0114 22       		.byte	34
 511 0115 22       		.byte	34
 512 0116 22       		.byte	34
 513 0117 22       		.byte	34
 514 0118 22       		.byte	34
 515 0119 22       		.byte	34
 516 011a 71       		.byte	113
 517 011b 7E       		.byte	126
 518 011c 0000     		.space	2
 519 011e BB       		.byte	-69
 520 011f 00       		.byte	0
 521 0120 82       		.byte	-126
 522 0121 00       		.byte	0
 523 0122 07       		.byte	7
 524 0123 00       		.byte	0
 525 0124 00       		.byte	0
 526 0125 FF       		.byte	-1
 527 0126 FF       		.byte	-1
 528 0127 02       		.byte	2
 529 0128 00       		.byte	0
 530 0129 80       		.byte	-128
 531 012a 09       		.byte	9
 532 012b 7E       		.byte	126
 533 012c 00000000 		.space	12
 533      00000000 
 533      00000000 
 534 0138 BB       		.byte	-69
 535 0139 00       		.byte	0
 536 013a 65       		.byte	101
 537 013b 00       		.byte	0
 538 013c 04       		.byte	4
ARM GAS  C:\Users\user\AppData\Local\Temp\ccUyaNyM.s 			page 19


 539 013d 00       		.byte	0
 540 013e 00       		.byte	0
 541 013f FF       		.byte	-1
 542 0140 FF       		.byte	-1
 543 0141 67       		.byte	103
 544 0142 7E       		.byte	126
 545 0143 00000000 		.space	15
 545      00000000 
 545      00000000 
 545      000000
 546 0152 BB       		.byte	-69
 547 0153 00       		.byte	0
 548 0154 11       		.byte	17
 549 0155 00       		.byte	0
 550 0156 02       		.byte	2
 551 0157 00       		.byte	0
 552 0158 C0       		.byte	-64
 553 0159 D3       		.byte	-45
 554 015a 7E       		.byte	126
 555 015b 00000000 		.space	17
 555      00000000 
 555      00000000 
 555      00000000 
 555      00
 556 016c BB       		.byte	-69
 557 016d 00       		.byte	0
 558 016e 0D       		.byte	13
 559 016f 00       		.byte	0
 560 0170 00       		.byte	0
 561 0171 0D       		.byte	13
 562 0172 7E       		.byte	126
 563 0173 00000000 		.space	19
 563      00000000 
 563      00000000 
 563      00000000 
 563      000000
 564 0186 BB       		.byte	-69
 565 0187 00       		.byte	0
 566 0188 0E       		.byte	14
 567 0189 00       		.byte	0
 568 018a 02       		.byte	2
 569 018b 10       		.byte	16
 570 018c 20       		.byte	32
 571 018d 40       		.byte	64
 572 018e 7E       		.byte	126
 573 018f 00000000 		.space	17
 573      00000000 
 573      00000000 
 573      00000000 
 573      00
 574 01a0 BB       		.byte	-69
 575 01a1 00       		.byte	0
 576 01a2 07       		.byte	7
 577 01a3 00       		.byte	0
 578 01a4 01       		.byte	1
 579 01a5 01       		.byte	1
 580 01a6 09       		.byte	9
ARM GAS  C:\Users\user\AppData\Local\Temp\ccUyaNyM.s 			page 20


 581 01a7 7E       		.byte	126
 582 01a8 00000000 		.space	18
 582      00000000 
 582      00000000 
 582      00000000 
 582      0000
 583 01ba BB       		.byte	-69
 584 01bb 00       		.byte	0
 585 01bc 08       		.byte	8
 586 01bd 00       		.byte	0
 587 01be 00       		.byte	0
 588 01bf 08       		.byte	8
 589 01c0 7E       		.byte	126
 590 01c1 00000000 		.space	19
 590      00000000 
 590      00000000 
 590      00000000 
 590      000000
 591 01d4 BB       		.byte	-69
 592 01d5 00       		.byte	0
 593 01d6 AB       		.byte	-85
 594 01d7 00       		.byte	0
 595 01d8 01       		.byte	1
 596 01d9 01       		.byte	1
 597 01da AC       		.byte	-84
 598 01db 7E       		.byte	126
 599 01dc 00000000 		.space	18
 599      00000000 
 599      00000000 
 599      00000000 
 599      0000
 600 01ee BB       		.byte	-69
 601 01ef 00       		.byte	0
 602 01f0 AA       		.byte	-86
 603 01f1 00       		.byte	0
 604 01f2 00       		.byte	0
 605 01f3 AA       		.byte	-86
 606 01f4 7E       		.byte	126
 607 01f5 00000000 		.space	19
 607      00000000 
 607      00000000 
 607      00000000 
 607      000000
 608 0208 BB       		.byte	-69
 609 0209 00       		.byte	0
 610 020a AD       		.byte	-83
 611 020b 00       		.byte	0
 612 020c 01       		.byte	1
 613 020d FF       		.byte	-1
 614 020e AD       		.byte	-83
 615 020f 7E       		.byte	126
 616 0210 00000000 		.space	18
 616      00000000 
 616      00000000 
 616      00000000 
 616      0000
 617 0222 BB       		.byte	-69
ARM GAS  C:\Users\user\AppData\Local\Temp\ccUyaNyM.s 			page 21


 618 0223 00       		.byte	0
 619 0224 A9       		.byte	-87
 620 0225 00       		.byte	0
 621 0226 06       		.byte	6
 622 0227 05       		.byte	5
 623 0228 01       		.byte	1
 624 0229 02       		.byte	2
 625 022a 03       		.byte	3
 626 022b 04       		.byte	4
 627 022c 05       		.byte	5
 628 022d C3       		.byte	-61
 629 022e 7E       		.byte	126
 630 022f 00000000 		.space	13
 630      00000000 
 630      00000000 
 630      00
 631 023c BB       		.byte	-69
 632 023d 00       		.byte	0
 633 023e B7       		.byte	-73
 634 023f 00       		.byte	0
 635 0240 00       		.byte	0
 636 0241 B7       		.byte	-73
 637 0242 7E       		.byte	126
 638 0243 00000000 		.space	19
 638      00000000 
 638      00000000 
 638      00000000 
 638      000000
 639 0256 BB       		.byte	-69
 640 0257 00       		.byte	0
 641 0258 B6       		.byte	-74
 642 0259 00       		.byte	0
 643 025a 02       		.byte	2
 644 025b 07       		.byte	7
 645 025c D0       		.byte	-48
 646 025d 8F       		.byte	-113
 647 025e 7E       		.byte	126
 648 025f 00000000 		.space	17
 648      00000000 
 648      00000000 
 648      00000000 
 648      00
 649 0270 BB       		.byte	-69
 650 0271 00       		.byte	0
 651 0272 B0       		.byte	-80
 652 0273 00       		.byte	0
 653 0274 01       		.byte	1
 654 0275 FF       		.byte	-1
 655 0276 B0       		.byte	-80
 656 0277 7E       		.byte	126
 657 0278 00000000 		.space	18
 657      00000000 
 657      00000000 
 657      00000000 
 657      0000
 658 028a BB       		.byte	-69
 659 028b 00       		.byte	0
ARM GAS  C:\Users\user\AppData\Local\Temp\ccUyaNyM.s 			page 22


 660 028c F1       		.byte	-15
 661 028d 00       		.byte	0
 662 028e 00       		.byte	0
 663 028f F1       		.byte	-15
 664 0290 7E       		.byte	126
 665 0291 00000000 		.space	19
 665      00000000 
 665      00000000 
 665      00000000 
 665      000000
 666 02a4 BB       		.byte	-69
 667 02a5 00       		.byte	0
 668 02a6 F0       		.byte	-16
 669 02a7 00       		.byte	0
 670 02a8 04       		.byte	4
 671 02a9 03       		.byte	3
 672 02aa 06       		.byte	6
 673 02ab 01       		.byte	1
 674 02ac B0       		.byte	-80
 675 02ad AE       		.byte	-82
 676 02ae 7E       		.byte	126
 677 02af 00000000 		.space	15
 677      00000000 
 677      00000000 
 677      000000
 678 02be BB       		.byte	-69
 679 02bf 00       		.byte	0
 680 02c0 F2       		.byte	-14
 681 02c1 00       		.byte	0
 682 02c2 00       		.byte	0
 683 02c3 F2       		.byte	-14
 684 02c4 7E       		.byte	126
 685 02c5 00000000 		.space	19
 685      00000000 
 685      00000000 
 685      00000000 
 685      000000
 686 02d8 BB       		.byte	-69
 687 02d9 00       		.byte	0
 688 02da F3       		.byte	-13
 689 02db 00       		.byte	0
 690 02dc 00       		.byte	0
 691 02dd F3       		.byte	-13
 692 02de 7E       		.byte	126
 693 02df 00000000 		.space	19
 693      00000000 
 693      00000000 
 693      00000000 
 693      000000
 694 02f2 00       		.byte	0
 695 02f3 00000000 		.space	25
 695      00000000 
 695      00000000 
 695      00000000 
 695      00000000 
 696 030c BB       		.byte	-69
 697 030d 00       		.byte	0
ARM GAS  C:\Users\user\AppData\Local\Temp\ccUyaNyM.s 			page 23


 698 030e 17       		.byte	23
 699 030f 00       		.byte	0
 700 0310 00       		.byte	0
 701 0311 17       		.byte	23
 702 0312 7E       		.byte	126
 703 0313 00000000 		.space	19
 703      00000000 
 703      00000000 
 703      00000000 
 703      000000
 704 0326 BB       		.byte	-69
 705 0327 00       		.byte	0
 706 0328 1D       		.byte	29
 707 0329 00       		.byte	0
 708 032a 01       		.byte	1
 709 032b 02       		.byte	2
 710 032c 20       		.byte	32
 711 032d 7E       		.byte	126
 712 032e 00000000 		.space	18
 712      00000000 
 712      00000000 
 712      00000000 
 712      0000
 713 0340 BB       		.byte	-69
 714 0341 00       		.byte	0
 715 0342 04       		.byte	4
 716 0343 00       		.byte	0
 717 0344 03       		.byte	3
 718 0345 01       		.byte	1
 719 0346 01       		.byte	1
 720 0347 03       		.byte	3
 721 0348 0C       		.byte	12
 722 0349 7E       		.byte	126
 723 034a 00000000 		.space	16
 723      00000000 
 723      00000000 
 723      00000000 
 724 035a BB       		.byte	-69
 725 035b 00       		.byte	0
 726 035c E1       		.byte	-31
 727 035d 00       		.byte	0
 728 035e 05       		.byte	5
 729 035f 00       		.byte	0
 730 0360 00       		.byte	0
 731 0361 FF       		.byte	-1
 732 0362 FF       		.byte	-1
 733 0363 00       		.byte	0
 734 0364 E4       		.byte	-28
 735 0365 7E       		.byte	126
 736 0366 00000000 		.space	14
 736      00000000 
 736      00000000 
 736      0000
 737 0374 BB       		.byte	-69
 738 0375 00       		.byte	0
 739 0376 E3       		.byte	-29
 740 0377 00       		.byte	0
ARM GAS  C:\Users\user\AppData\Local\Temp\ccUyaNyM.s 			page 24


 741 0378 05       		.byte	5
 742 0379 00       		.byte	0
 743 037a 00       		.byte	0
 744 037b FF       		.byte	-1
 745 037c FF       		.byte	-1
 746 037d 01       		.byte	1
 747 037e E7       		.byte	-25
 748 037f 7E       		.byte	126
 749 0380 00000000 		.space	14
 749      00000000 
 749      00000000 
 749      0000
 750 038e BB       		.byte	-69
 751 038f 00       		.byte	0
 752 0390 E4       		.byte	-28
 753 0391 00       		.byte	0
 754 0392 00       		.byte	0
 755 0393 E4       		.byte	-28
 756 0394 7E       		.byte	126
 757 0395 00000000 		.space	19
 757      00000000 
 757      00000000 
 757      00000000 
 757      000000
 758 03a8 BB       		.byte	-69
 759 03a9 00       		.byte	0
 760 03aa E0       		.byte	-32
 761 03ab 00       		.byte	0
 762 03ac 06       		.byte	6
 763 03ad 00       		.byte	0
 764 03ae 00       		.byte	0
 765 03af FF       		.byte	-1
 766 03b0 FF       		.byte	-1
 767 03b1 00       		.byte	0
 768 03b2 00       		.byte	0
 769 03b3 E4       		.byte	-28
 770 03b4 7E       		.byte	126
 771 03b5 00000000 		.space	13
 771      00000000 
 771      00000000 
 771      00
 772 03c2 BB       		.byte	-69
 773 03c3 00       		.byte	0
 774 03c4 E5       		.byte	-27
 775 03c5 00       		.byte	0
 776 03c6 08       		.byte	8
 777 03c7 00       		.byte	0
 778 03c8 00       		.byte	0
 779 03c9 FF       		.byte	-1
 780 03ca FF       		.byte	-1
 781 03cb 01       		.byte	1
 782 03cc 01       		.byte	1
 783 03cd 40       		.byte	64
 784 03ce 00       		.byte	0
 785 03cf 2D       		.byte	45
 786 03d0 7E       		.byte	126
 787 03d1 00000000 		.space	11
ARM GAS  C:\Users\user\AppData\Local\Temp\ccUyaNyM.s 			page 25


 787      00000000 
 787      000000
 788 03dc BB       		.byte	-69
 789 03dd 00       		.byte	0
 790 03de D3       		.byte	-45
 791 03df 00       		.byte	0
 792 03e0 0B       		.byte	11
 793 03e1 00       		.byte	0
 794 03e2 00       		.byte	0
 795 03e3 FF       		.byte	-1
 796 03e4 FF       		.byte	-1
 797 03e5 01       		.byte	1
 798 03e6 03       		.byte	3
 799 03e7 00       		.byte	0
 800 03e8 00       		.byte	0
 801 03e9 01       		.byte	1
 802 03ea 07       		.byte	7
 803 03eb 00       		.byte	0
 804 03ec E8       		.byte	-24
 805 03ed 7E       		.byte	126
 806 03ee 00000000 		.space	8
 806      00000000 
 807 03f6 BB       		.byte	-69
 808 03f7 00       		.byte	0
 809 03f8 27       		.byte	39
 810 03f9 00       		.byte	0
 811 03fa 03       		.byte	3
 812 03fb 22       		.byte	34
 813 03fc 00       		.byte	0
 814 03fd 14       		.byte	20
 815 03fe 60       		.byte	96
 816 03ff 7E       		.byte	126
 817 0400 00000000 		.space	16
 817      00000000 
 817      00000000 
 817      00000000 
 818              		.section	.rodata.main.str1.4,"aMS",%progbits,1
 819              		.align	2
 820              	.LC0:
 821 0000 2564200A 		.ascii	"%d \012\015\000"
 821      0D00
 822              		.text
 823              	.Letext0:
 824              		.file 3 "c:\\program files (x86)\\gnu tools arm embedded\\8 2019-q3-update\\arm-none-eabi\\include
 825              		.file 4 "c:\\program files (x86)\\gnu tools arm embedded\\8 2019-q3-update\\arm-none-eabi\\include
 826              		.file 5 "Drivers/CMSIS/Include/core_cm3.h"
 827              		.file 6 "Drivers/CMSIS/Device/ST/STM32F1xx/Include/system_stm32f1xx.h"
 828              		.file 7 "Drivers/CMSIS/Device/ST/STM32F1xx/Include/stm32f103xb.h"
 829              		.file 8 "Drivers/STM32F1xx_HAL_Driver/Inc/stm32f1xx_hal_def.h"
 830              		.file 9 "Drivers/STM32F1xx_HAL_Driver/Inc/stm32f1xx_hal_rcc.h"
 831              		.file 10 "Drivers/STM32F1xx_HAL_Driver/Inc/stm32f1xx_hal_rcc_ex.h"
 832              		.file 11 "Drivers/STM32F1xx_HAL_Driver/Inc/stm32f1xx_hal_dma.h"
 833              		.file 12 "Drivers/STM32F1xx_HAL_Driver/Inc/stm32f1xx_hal_uart.h"
 834              		.file 13 "Drivers/STM32F1xx_HAL_Driver/Inc/stm32f1xx_hal.h"
 835              		.file 14 "Core/Inc/usart.h"
 836              		.file 15 "<built-in>"
 837              		.file 16 "Drivers/STM32F1xx_HAL_Driver/Inc/stm32f1xx_hal_gpio.h"
ARM GAS  C:\Users\user\AppData\Local\Temp\ccUyaNyM.s 			page 26


 838              		.file 17 "Core/Inc/gpio.h"
ARM GAS  C:\Users\user\AppData\Local\Temp\ccUyaNyM.s 			page 27

